	.file	"greyScale.c"
	.text
	.p2align 4
	.type	resample_row_1, @function
resample_row_1:
.LFB664:
	.cfi_startproc
	endbr64
	movq	%rsi, %rax
	ret
	.cfi_endproc
.LFE664:
	.size	resample_row_1, .-resample_row_1
	.p2align 4
	.type	stbi__resample_row_v_2, @function
stbi__resample_row_v_2:
.LFB665:
	.cfi_startproc
	endbr64
	movq	%rdi, %r8
	testl	%ecx, %ecx
	jle	.L4
	leaq	1(%rsi), %rdi
	movq	%r8, %rax
	leaq	1(%rdx), %r9
	subq	%rdi, %rax
	cmpq	$14, %rax
	movq	%r8, %rax
	seta	%dil
	subq	%r9, %rax
	cmpq	$14, %rax
	seta	%al
	testb	%al, %dil
	je	.L5
	leal	-1(%rcx), %eax
	cmpl	$14, %eax
	jbe	.L5
	vmovdqa	.LC0(%rip), %xmm4
	vmovdqa	.LC1(%rip), %xmm3
	movl	%ecx, %edi
	xorl	%eax, %eax
	vmovdqa	.LC2(%rip), %xmm2
	shrl	$4, %edi
	salq	$4, %rdi
	vpmovzxbw	%xmm4, %xmm5
	vpsrldq	$8, %xmm4, %xmm4
	vpmovzxbw	%xmm4, %xmm4
	.p2align 4
	.p2align 3
.L6:
	vmovdqu	(%rsi,%rax), %xmm0
	vmovdqu	(%rdx,%rax), %xmm6
	vpmovzxbw	%xmm0, %xmm1
	vpsrldq	$8, %xmm0, %xmm0
	vpmovzxbw	%xmm0, %xmm0
	vpmovzxbw	%xmm6, %xmm7
	vpmullw	%xmm5, %xmm1, %xmm1
	vpsrldq	$8, %xmm6, %xmm6
	vpmovzxbw	%xmm6, %xmm6
	vpmullw	%xmm4, %xmm0, %xmm0
	vpaddw	%xmm7, %xmm1, %xmm1
	vpaddw	%xmm3, %xmm1, %xmm1
	vpsrlw	$2, %xmm1, %xmm1
	vpand	%xmm1, %xmm2, %xmm1
	vpaddw	%xmm6, %xmm0, %xmm0
	vpaddw	%xmm3, %xmm0, %xmm0
	vpsrlw	$2, %xmm0, %xmm0
	vpand	%xmm0, %xmm2, %xmm0
	vpackuswb	%xmm0, %xmm1, %xmm0
	vmovdqu	%xmm0, (%r8,%rax)
	addq	$16, %rax
	cmpq	%rdi, %rax
	jne	.L6
	movl	%ecx, %eax
	andl	$-16, %eax
	testb	$15, %cl
	je	.L4
	movl	%eax, %edi
	movzbl	(%rsi,%rdi), %r9d
	leal	(%r9,%r9,2), %r10d
	movzbl	(%rdx,%rdi), %r9d
	leal	2(%r10,%r9), %r9d
	sarl	$2, %r9d
	movb	%r9b, (%r8,%rdi)
	leal	1(%rax), %edi
	cmpl	%edi, %ecx
	jle	.L4
	movslq	%edi, %rdi
	movzbl	(%rsi,%rdi), %r9d
	leal	(%r9,%r9,2), %r10d
	movzbl	(%rdx,%rdi), %r9d
	leal	2(%r10,%r9), %r9d
	sarl	$2, %r9d
	movb	%r9b, (%r8,%rdi)
	leal	2(%rax), %edi
	cmpl	%edi, %ecx
	jle	.L4
	movslq	%edi, %rdi
	movzbl	(%rsi,%rdi), %r9d
	leal	(%r9,%r9,2), %r10d
	movzbl	(%rdx,%rdi), %r9d
	leal	2(%r10,%r9), %r9d
	sarl	$2, %r9d
	movb	%r9b, (%r8,%rdi)
	leal	3(%rax), %edi
	cmpl	%edi, %ecx
	jle	.L4
	movslq	%edi, %rdi
	movzbl	(%rsi,%rdi), %r9d
	leal	(%r9,%r9,2), %r10d
	movzbl	(%rdx,%rdi), %r9d
	leal	2(%r10,%r9), %r9d
	sarl	$2, %r9d
	movb	%r9b, (%r8,%rdi)
	leal	4(%rax), %edi
	cmpl	%edi, %ecx
	jle	.L4
	movslq	%edi, %rdi
	movzbl	(%rsi,%rdi), %r9d
	leal	(%r9,%r9,2), %r10d
	movzbl	(%rdx,%rdi), %r9d
	leal	2(%r10,%r9), %r9d
	sarl	$2, %r9d
	movb	%r9b, (%r8,%rdi)
	leal	5(%rax), %edi
	cmpl	%edi, %ecx
	jle	.L4
	movslq	%edi, %rdi
	movzbl	(%rsi,%rdi), %r9d
	leal	(%r9,%r9,2), %r10d
	movzbl	(%rdx,%rdi), %r9d
	leal	2(%r10,%r9), %r9d
	sarl	$2, %r9d
	movb	%r9b, (%r8,%rdi)
	leal	6(%rax), %edi
	cmpl	%edi, %ecx
	jle	.L4
	movslq	%edi, %rdi
	movzbl	(%rsi,%rdi), %r9d
	leal	(%r9,%r9,2), %r10d
	movzbl	(%rdx,%rdi), %r9d
	leal	2(%r10,%r9), %r9d
	sarl	$2, %r9d
	movb	%r9b, (%r8,%rdi)
	leal	7(%rax), %edi
	cmpl	%edi, %ecx
	jle	.L4
	movslq	%edi, %rdi
	movzbl	(%rsi,%rdi), %r9d
	leal	(%r9,%r9,2), %r10d
	movzbl	(%rdx,%rdi), %r9d
	leal	2(%r10,%r9), %r9d
	sarl	$2, %r9d
	movb	%r9b, (%r8,%rdi)
	leal	8(%rax), %edi
	cmpl	%edi, %ecx
	jle	.L4
	movslq	%edi, %rdi
	movzbl	(%rsi,%rdi), %r9d
	leal	(%r9,%r9,2), %r10d
	movzbl	(%rdx,%rdi), %r9d
	leal	2(%r10,%r9), %r9d
	sarl	$2, %r9d
	movb	%r9b, (%r8,%rdi)
	leal	9(%rax), %edi
	cmpl	%edi, %ecx
	jle	.L4
	movslq	%edi, %rdi
	movzbl	(%rsi,%rdi), %r9d
	leal	(%r9,%r9,2), %r10d
	movzbl	(%rdx,%rdi), %r9d
	leal	2(%r10,%r9), %r9d
	sarl	$2, %r9d
	movb	%r9b, (%r8,%rdi)
	leal	10(%rax), %edi
	cmpl	%edi, %ecx
	jle	.L4
	movslq	%edi, %rdi
	movzbl	(%rsi,%rdi), %r9d
	leal	(%r9,%r9,2), %r10d
	movzbl	(%rdx,%rdi), %r9d
	leal	2(%r10,%r9), %r9d
	sarl	$2, %r9d
	movb	%r9b, (%r8,%rdi)
	leal	11(%rax), %edi
	cmpl	%edi, %ecx
	jle	.L4
	movslq	%edi, %rdi
	movzbl	(%rsi,%rdi), %r9d
	leal	(%r9,%r9,2), %r10d
	movzbl	(%rdx,%rdi), %r9d
	leal	2(%r10,%r9), %r9d
	sarl	$2, %r9d
	movb	%r9b, (%r8,%rdi)
	leal	12(%rax), %edi
	cmpl	%edi, %ecx
	jle	.L4
	movslq	%edi, %rdi
	movzbl	(%rsi,%rdi), %r9d
	leal	(%r9,%r9,2), %r10d
	movzbl	(%rdx,%rdi), %r9d
	leal	2(%r10,%r9), %r9d
	sarl	$2, %r9d
	movb	%r9b, (%r8,%rdi)
	leal	13(%rax), %edi
	cmpl	%edi, %ecx
	jle	.L4
	movslq	%edi, %rdi
	addl	$14, %eax
	movzbl	(%rsi,%rdi), %r9d
	leal	(%r9,%r9,2), %r10d
	movzbl	(%rdx,%rdi), %r9d
	leal	2(%r10,%r9), %r9d
	sarl	$2, %r9d
	movb	%r9b, (%r8,%rdi)
	cmpl	%eax, %ecx
	jle	.L4
	cltq
	movzbl	(%rsi,%rax), %ecx
	movzbl	(%rdx,%rax), %edx
	leal	(%rcx,%rcx,2), %ecx
	leal	2(%rcx,%rdx), %edx
	sarl	$2, %edx
	movb	%dl, (%r8,%rax)
.L4:
	movq	%r8, %rax
	ret
	.p2align 4
	.p2align 3
.L5:
	movl	%ecx, %ecx
	xorl	%eax, %eax
	.p2align 4
	.p2align 3
.L8:
	movzbl	(%rsi,%rax), %edi
	leal	(%rdi,%rdi,2), %r9d
	movzbl	(%rdx,%rax), %edi
	leal	2(%r9,%rdi), %edi
	sarl	$2, %edi
	movb	%dil, (%r8,%rax)
	incq	%rax
	cmpq	%rax, %rcx
	jne	.L8
	movq	%r8, %rax
	ret
	.cfi_endproc
.LFE665:
	.size	stbi__resample_row_v_2, .-stbi__resample_row_v_2
	.p2align 4
	.type	stbi__resample_row_generic, @function
stbi__resample_row_generic:
.LFB669:
	.cfi_startproc
	endbr64
	movq	%rdi, %r10
	testl	%ecx, %ecx
	jle	.L42
	testl	%r8d, %r8d
	jle	.L42
	leal	-1(%rcx), %eax
	pushq	%r15
	.cfi_def_cfa_offset 16
	.cfi_offset 15, -16
	pushq	%r14
	.cfi_def_cfa_offset 24
	.cfi_offset 14, -24
	movl	%r8d, %r14d
	pushq	%r13
	.cfi_def_cfa_offset 32
	.cfi_offset 13, -32
	leaq	1(%rsi,%rax), %rax
	pushq	%r12
	.cfi_def_cfa_offset 40
	.cfi_offset 12, -40
	movslq	%r8d, %r13
	pushq	%rbp
	.cfi_def_cfa_offset 48
	.cfi_offset 6, -48
	pushq	%rbx
	.cfi_def_cfa_offset 56
	.cfi_offset 3, -56
	movl	%r8d, %ebx
	leal	-1(%r8), %r15d
	movq	%rax, -40(%rsp)
	movl	%r8d, %eax
	andl	$-16, %r14d
	xorl	%r12d, %r12d
	shrl	$4, %eax
	xorl	%r9d, %r9d
	movq	%rbx, -16(%rsp)
	decl	%eax
	incq	%rax
	salq	$4, %rax
	movq	%rax, -32(%rsp)
	movl	%r8d, %eax
	andl	$15, %eax
	movl	%eax, -24(%rsp)
	decl	%eax
	movl	%eax, -20(%rsp)
	.p2align 4
	.p2align 3
.L21:
	movq	%rsi, %rcx
	leaq	0(%r13,%rdi), %rax
	incq	%rsi
	cmpq	%rax, %rcx
	setnb	%dl
	cmpq	%rsi, %rdi
	setnb	%al
	orb	%dl, %al
	je	.L33
	cmpl	$6, %r15d
	jbe	.L33
	cmpl	$14, %r15d
	jbe	.L31
	vpbroadcastb	(%rcx), %xmm0
	movq	-32(%rsp), %rax
	leaq	(%rax,%rdi), %rdx
	movq	%rdi, %rax
	.p2align 4
	.p2align 3
.L23:
	vmovdqu	%xmm0, (%rax)
	addq	$16, %rax
	cmpq	%rax, %rdx
	jne	.L23
	cmpl	%r8d, %r14d
	je	.L28
	cmpl	$6, -20(%rsp)
	movl	-24(%rsp), %ebp
	jbe	.L32
	movl	%r14d, %r11d
	movl	%r14d, %eax
.L22:
	movzbl	(%rcx), %ebx
	movl	%ebx, %edx
	sall	$8, %edx
	orl	%ebx, %edx
	leaq	(%r10,%r12), %rbx
	vmovd	%edx, %xmm1
	movl	%ebp, %edx
	vpshuflw	$0, %xmm1, %xmm0
	andl	$-8, %edx
	vmovq	%xmm0, (%rbx,%r11)
	addl	%edx, %eax
	cmpl	%ebp, %edx
	je	.L28
.L25:
	movzbl	(%rcx), %r11d
	leal	(%r9,%rax), %edx
	movslq	%edx, %rdx
	movb	%r11b, (%r10,%rdx)
	leal	1(%rax), %edx
	cmpl	%edx, %r8d
	jle	.L28
	addl	%r9d, %edx
	movslq	%edx, %rdx
	movb	%r11b, (%r10,%rdx)
	leal	2(%rax), %edx
	cmpl	%edx, %r8d
	jle	.L28
	movzbl	(%rcx), %r11d
	addl	%r9d, %edx
	movslq	%edx, %rdx
	movb	%r11b, (%r10,%rdx)
	leal	3(%rax), %edx
	cmpl	%edx, %r8d
	jle	.L28
	addl	%r9d, %edx
	movslq	%edx, %rdx
	movb	%r11b, (%r10,%rdx)
	leal	4(%rax), %edx
	cmpl	%edx, %r8d
	jle	.L28
	movzbl	(%rcx), %r11d
	addl	%r9d, %edx
	movslq	%edx, %rdx
	movb	%r11b, (%r10,%rdx)
	leal	5(%rax), %edx
	cmpl	%edx, %r8d
	jle	.L28
	addl	%r9d, %edx
	addl	$6, %eax
	movslq	%edx, %rdx
	movb	%r11b, (%r10,%rdx)
	cmpl	%eax, %r8d
	jle	.L28
	movzbl	(%rcx), %edx
	addl	%r9d, %eax
	cltq
	movb	%dl, (%r10,%rax)
.L28:
	addq	%r13, %rdi
	addl	%r8d, %r9d
	addq	%r13, %r12
	cmpq	-40(%rsp), %rsi
	jne	.L21
	popq	%rbx
	.cfi_remember_state
	.cfi_def_cfa_offset 48
	movq	%r10, %rax
	popq	%rbp
	.cfi_def_cfa_offset 40
	popq	%r12
	.cfi_def_cfa_offset 32
	popq	%r13
	.cfi_def_cfa_offset 24
	popq	%r14
	.cfi_def_cfa_offset 16
	popq	%r15
	.cfi_def_cfa_offset 8
	ret
	.p2align 4
	.p2align 3
.L33:
	.cfi_restore_state
	movq	-16(%rsp), %rbx
	movq	%rdi, %rax
	leaq	(%rbx,%rdi), %rdx
	.p2align 4
	.p2align 3
.L27:
	movzbl	(%rcx), %r11d
	incq	%rax
	movb	%r11b, -1(%rax)
	cmpq	%rdx, %rax
	jne	.L27
	jmp	.L28
.L31:
	movl	%r8d, %ebp
	xorl	%r11d, %r11d
	xorl	%eax, %eax
	jmp	.L22
.L32:
	movl	%r14d, %eax
	jmp	.L25
.L42:
	.cfi_def_cfa_offset 8
	.cfi_restore 3
	.cfi_restore 6
	.cfi_restore 12
	.cfi_restore 13
	.cfi_restore 14
	.cfi_restore 15
	movq	%r10, %rax
	ret
	.cfi_endproc
.LFE669:
	.size	stbi__resample_row_generic, .-stbi__resample_row_generic
	.p2align 4
	.type	stbi__out_gif_code, @function
stbi__out_gif_code:
.LFB750:
	.cfi_startproc
	pushq	%rbp
	.cfi_def_cfa_offset 16
	.cfi_offset 6, -16
	movzwl	%si, %ebp
	pushq	%rbx
	.cfi_def_cfa_offset 24
	.cfi_offset 3, -24
	movq	%rdi, %rbx
	subq	$8, %rsp
	.cfi_def_cfa_offset 32
	movswl	2100(%rdi,%rbp,4), %esi
	testw	%si, %si
	js	.L46
	call	stbi__out_gif_code
.L46:
	movl	34912(%rbx), %edx
	cmpl	34904(%rbx), %edx
	jge	.L52
	addl	34908(%rbx), %edx
	movq	24(%rbx), %rsi
	movq	8(%rbx), %rcx
	leal	3(%rdx), %eax
	cmovns	%edx, %eax
	sarl	$2, %eax
	cltq
	movb	$1, (%rsi,%rax)
	movzbl	2103(%rbx,%rbp,4), %eax
	sall	$2, %eax
	cltq
	addq	34872(%rbx), %rax
	cmpb	$-128, 3(%rax)
	jbe	.L48
	movslq	%edx, %rdx
	addq	%rcx, %rdx
	movzbl	2(%rax), %ecx
	movb	%cl, (%rdx)
	movzbl	1(%rax), %ecx
	movb	%cl, 1(%rdx)
	movzbl	(%rax), %ecx
	movb	%cl, 2(%rdx)
	movzbl	3(%rax), %eax
	movb	%al, 3(%rdx)
.L48:
	movl	34908(%rbx), %eax
	addl	$4, %eax
	movl	%eax, 34908(%rbx)
	cmpl	34900(%rbx), %eax
	jl	.L52
	movl	34884(%rbx), %eax
	vmovd	34892(%rbx), %xmm2
	addl	34912(%rbx), %eax
	movl	34904(%rbx), %esi
	vpinsrd	$1, %eax, %xmm2, %xmm0
	vmovq	%xmm0, 34908(%rbx)
	cmpl	%esi, %eax
	jl	.L52
	movl	34880(%rbx), %edx
	jmp	.L50
	.p2align 4
	.p2align 3
.L51:
	shlx	%edx, 34916(%rbx), %eax
	movl	%eax, %ecx
	decl	%edx
	sarl	%ecx
	addl	34896(%rbx), %ecx
	vmovd	%edx, %xmm1
	vpinsrd	$1, %eax, %xmm1, %xmm0
	vmovq	%xmm0, 34880(%rbx)
	movl	%ecx, 34912(%rbx)
	cmpl	%esi, %ecx
	jl	.L52
.L50:
	testl	%edx, %edx
	jg	.L51
.L52:
	addq	$8, %rsp
	.cfi_def_cfa_offset 24
	popq	%rbx
	.cfi_def_cfa_offset 16
	popq	%rbp
	.cfi_def_cfa_offset 8
	ret
	.cfi_endproc
.LFE750:
	.size	stbi__out_gif_code, .-stbi__out_gif_code
	.p2align 4
	.type	stbiw__jpg_DCT, @function
stbiw__jpg_DCT:
.LFB827:
	.cfi_startproc
	movq	%rdi, %rax
	movq	16(%rsp), %r10
	movq	8(%rsp), %rdi
	vmovss	(%r9), %xmm8
	vmovss	(%rax), %xmm4
	vmovss	(%rsi), %xmm2
	vmovss	(%rdx), %xmm0
	vmovss	(%r8), %xmm7
	vmovss	(%rcx), %xmm1
	vmovss	(%rdi), %xmm6
	vmovss	(%r10), %xmm3
	vmovss	.LC6(%rip), %xmm10
	vaddss	%xmm3, %xmm4, %xmm5
	vsubss	%xmm3, %xmm4, %xmm4
	vaddss	%xmm6, %xmm2, %xmm3
	vsubss	%xmm6, %xmm2, %xmm2
	vaddss	%xmm8, %xmm0, %xmm6
	vsubss	%xmm8, %xmm0, %xmm0
	vaddss	%xmm7, %xmm1, %xmm8
	vsubss	%xmm7, %xmm1, %xmm1
	vaddss	%xmm6, %xmm3, %xmm9
	vsubss	%xmm6, %xmm3, %xmm3
	vmovss	.LC4(%rip), %xmm6
	vaddss	%xmm8, %xmm5, %xmm7
	vsubss	%xmm8, %xmm5, %xmm5
	vaddss	%xmm1, %xmm0, %xmm1
	vaddss	%xmm0, %xmm2, %xmm0
	vaddss	%xmm2, %xmm4, %xmm2
	vaddss	%xmm5, %xmm3, %xmm3
	vaddss	%xmm9, %xmm7, %xmm8
	vsubss	%xmm9, %xmm7, %xmm7
	vmovaps	%xmm3, %xmm9
	vfmadd132ss	%xmm6, %xmm5, %xmm9
	vfnmadd132ss	%xmm6, %xmm5, %xmm3
	vsubss	%xmm2, %xmm1, %xmm5
	vmulss	.LC5(%rip), %xmm1, %xmm1
	vmulss	.LC7(%rip), %xmm2, %xmm2
	vfmadd231ss	%xmm10, %xmm5, %xmm1
	vfmadd231ss	%xmm10, %xmm5, %xmm2
	vmovaps	%xmm0, %xmm5
	vfnmadd132ss	%xmm6, %xmm4, %xmm0
	vfmadd132ss	%xmm6, %xmm4, %xmm5
	vaddss	%xmm0, %xmm1, %xmm4
	vsubss	%xmm1, %xmm0, %xmm0
	vmovss	%xmm4, (%r9)
	vmovss	%xmm0, (%rcx)
	vaddss	%xmm5, %xmm2, %xmm0
	vsubss	%xmm2, %xmm5, %xmm5
	vmovss	%xmm0, (%rsi)
	vmovss	%xmm5, (%r10)
	vmovss	%xmm8, (%rax)
	vmovss	%xmm9, (%rdx)
	vmovss	%xmm7, (%r8)
	vmovss	%xmm3, (%rdi)
	ret
	.cfi_endproc
.LFE827:
	.size	stbiw__jpg_DCT, .-stbiw__jpg_DCT
	.p2align 4
	.type	stbi__stdio_skip, @function
stbi__stdio_skip:
.LFB576:
	.cfi_startproc
	endbr64
	pushq	%rbp
	.cfi_def_cfa_offset 16
	.cfi_offset 6, -16
	movslq	%esi, %rsi
	movq	%rdi, %rbp
	movl	$1, %edx
	call	fseek@PLT
	movq	%rbp, %rdi
	call	fgetc@PLT
	cmpl	$-1, %eax
	jne	.L59
	popq	%rbp
	.cfi_remember_state
	.cfi_def_cfa_offset 8
	ret
	.p2align 4
	.p2align 3
.L59:
	.cfi_restore_state
	movq	%rbp, %rsi
	popq	%rbp
	.cfi_def_cfa_offset 8
	movl	%eax, %edi
	jmp	ungetc@PLT
	.cfi_endproc
.LFE576:
	.size	stbi__stdio_skip, .-stbi__stdio_skip
	.p2align 4
	.type	stbi__stdio_read, @function
stbi__stdio_read:
.LFB575:
	.cfi_startproc
	endbr64
	subq	$8, %rsp
	.cfi_def_cfa_offset 16
	movq	%rdi, %rcx
	movslq	%edx, %rdx
	movq	%rsi, %rdi
	movl	$1, %esi
	call	fread@PLT
	addq	$8, %rsp
	.cfi_def_cfa_offset 8
	ret
	.cfi_endproc
.LFE575:
	.size	stbi__stdio_read, .-stbi__stdio_read
	.section	.rodata.str1.1,"aMS",@progbits,1
.LC8:
	.string	"stb_image_write.h"
.LC9:
	.string	"0"
	.text
	.p2align 4
	.type	stbiw__writefv, @function
stbiw__writefv:
.LFB791:
	.cfi_startproc
	pushq	%r13
	.cfi_def_cfa_offset 16
	.cfi_offset 13, -16
	pushq	%r12
	.cfi_def_cfa_offset 24
	.cfi_offset 12, -24
	pushq	%rbp
	.cfi_def_cfa_offset 32
	.cfi_offset 6, -32
	pushq	%rbx
	.cfi_def_cfa_offset 40
	.cfi_offset 3, -40
	subq	$24, %rsp
	.cfi_def_cfa_offset 64
	movq	%fs:40, %rax
	movq	%rax, 8(%rsp)
	xorl	%eax, %eax
	movzbl	(%rsi), %eax
	testb	%al, %al
	je	.L62
	movq	%rdi, %r12
	movq	%rsi, %rbx
	movq	%rdx, %rbp
	leaq	4(%rsp), %r13
	jmp	.L76
	.p2align 4
	.p2align 3
.L87:
	cmpb	$32, %al
	je	.L66
	cmpb	$49, %al
	jne	.L68
	movl	0(%rbp), %eax
	cmpl	$47, %eax
	ja	.L70
	movl	%eax, %edx
	addq	16(%rbp), %rdx
	addl	$8, %eax
	movl	%eax, 0(%rbp)
.L71:
	movl	(%rdx), %eax
	leaq	3(%rsp), %rsi
	movl	$1, %edx
	movq	8(%r12), %rdi
	movb	%al, 3(%rsp)
	call	*(%r12)
.L66:
	movzbl	(%rbx), %eax
	testb	%al, %al
	je	.L62
.L76:
	incq	%rbx
	cmpb	$50, %al
	je	.L64
	jle	.L87
	cmpb	$52, %al
	jne	.L68
	movl	0(%rbp), %eax
	cmpl	$47, %eax
	ja	.L74
	movl	%eax, %edx
	addq	16(%rbp), %rdx
	addl	$8, %eax
	movl	%eax, 0(%rbp)
.L75:
	movl	(%rdx), %eax
	movq	%r13, %rsi
	movl	$4, %edx
	movq	8(%r12), %rdi
	movl	%eax, 4(%rsp)
	call	*(%r12)
	movzbl	(%rbx), %eax
	testb	%al, %al
	jne	.L76
.L62:
	movq	8(%rsp), %rax
	subq	%fs:40, %rax
	jne	.L88
	addq	$24, %rsp
	.cfi_remember_state
	.cfi_def_cfa_offset 40
	popq	%rbx
	.cfi_def_cfa_offset 32
	popq	%rbp
	.cfi_def_cfa_offset 24
	popq	%r12
	.cfi_def_cfa_offset 16
	popq	%r13
	.cfi_def_cfa_offset 8
	ret
	.p2align 4
	.p2align 3
.L64:
	.cfi_restore_state
	movl	0(%rbp), %eax
	cmpl	$47, %eax
	ja	.L72
	movl	%eax, %edx
	addq	16(%rbp), %rdx
	addl	$8, %eax
	movl	%eax, 0(%rbp)
.L73:
	movzwl	(%rdx), %eax
	movq	%r13, %rsi
	movl	$2, %edx
	movq	8(%r12), %rdi
	movw	%ax, 4(%rsp)
	call	*(%r12)
	jmp	.L66
	.p2align 4
	.p2align 3
.L74:
	movq	8(%rbp), %rdx
	leaq	8(%rdx), %rax
	movq	%rax, 8(%rbp)
	jmp	.L75
	.p2align 4
	.p2align 3
.L72:
	movq	8(%rbp), %rdx
	leaq	8(%rdx), %rax
	movq	%rax, 8(%rbp)
	jmp	.L73
	.p2align 4
	.p2align 3
.L70:
	movq	8(%rbp), %rdx
	leaq	8(%rdx), %rax
	movq	%rax, 8(%rbp)
	jmp	.L71
.L68:
	leaq	__PRETTY_FUNCTION__.30(%rip), %rcx
	movl	$372, %edx
	leaq	.LC8(%rip), %rsi
	leaq	.LC9(%rip), %rdi
	call	__assert_fail@PLT
.L88:
	call	__stack_chk_fail@PLT
	.cfi_endproc
.LFE791:
	.size	stbiw__writefv, .-stbiw__writefv
	.section	.rodata.str1.1
.LC10:
	.string	"bad code lengths"
	.text
	.p2align 4
	.type	stbi__build_huffman, @function
stbi__build_huffman:
.LFB640:
	.cfi_startproc
	pushq	%r14
	.cfi_def_cfa_offset 16
	.cfi_offset 14, -16
	movq	%rsi, %r14
	pushq	%r13
	.cfi_def_cfa_offset 24
	.cfi_offset 13, -24
	xorl	%r13d, %r13d
	pushq	%r12
	.cfi_def_cfa_offset 32
	.cfi_offset 12, -32
	pushq	%rbp
	.cfi_def_cfa_offset 40
	.cfi_offset 6, -40
	movl	$1, %ebp
	pushq	%rbx
	.cfi_def_cfa_offset 48
	.cfi_offset 3, -48
	movq	%rdi, %rbx
	.p2align 4
	.p2align 3
.L90:
	movl	-4(%r14,%rbp,4), %r12d
	testl	%r12d, %r12d
	jle	.L93
	movslq	%r13d, %rax
	movslq	%r12d, %rdx
	movl	%ebp, %esi
	addl	%r12d, %r13d
	leaq	1280(%rbx,%rax), %rdi
	call	memset@PLT
.L93:
	incq	%rbp
	cmpq	$17, %rbp
	jne	.L90
	movslq	%r13d, %r13
	movl	$1, %edx
	xorl	%eax, %eax
	xorl	%ebp, %ebp
	movb	$0, 1280(%rbx,%r13)
	movl	$16, %r8d
	jmp	.L97
	.p2align 4
	.p2align 3
.L94:
	movl	%r8d, %ecx
	subl	%r9d, %ecx
	shlx	%ecx, %eax, %ecx
	addl	%eax, %eax
	movl	%ecx, 1540(%rbx,%rdx,4)
	incq	%rdx
	cmpq	$17, %rdx
	je	.L111
.L97:
	movl	%ebp, %ecx
	movl	%edx, %r9d
	movl	%edx, %r10d
	movl	%edx, %edi
	subl	%eax, %ecx
	movl	%ecx, 1612(%rbx,%rdx,4)
	movslq	%ebp, %rcx
	movzbl	1280(%rbx,%rcx), %ecx
	cmpl	%edx, %ecx
	jne	.L94
	leal	1(%rbp), %ecx
	movslq	%ecx, %rcx
	.p2align 4
	.p2align 3
.L95:
	movl	%eax, %r11d
	incl	%eax
	movl	%ecx, %ebp
	leal	-1(%rax), %esi
	movw	%si, 510(%rbx,%rcx,2)
	movzbl	1280(%rbx,%rcx), %esi
	incq	%rcx
	cmpl	%edi, %esi
	je	.L95
	shrx	%r10d, %r11d, %r11d
	testl	%r11d, %r11d
	je	.L94
	leaq	.LC10(%rip), %rax
	movq	%rax, %fs:stbi__g_failure_reason@tpoff
	xorl	%eax, %eax
	popq	%rbx
	.cfi_remember_state
	.cfi_def_cfa_offset 40
	popq	%rbp
	.cfi_def_cfa_offset 32
	popq	%r12
	.cfi_def_cfa_offset 24
	popq	%r13
	.cfi_def_cfa_offset 16
	popq	%r14
	.cfi_def_cfa_offset 8
	ret
.L111:
	.cfi_restore_state
	movl	$-1, 1608(%rbx)
	movl	$512, %edx
	movl	$255, %esi
	movq	%rbx, %rdi
	call	memset@PLT
	movslq	%ebp, %r14
	xorl	%r12d, %r12d
	movl	$9, %r13d
	testl	%ebp, %ebp
	jne	.L100
	jmp	.L101
	.p2align 4
	.p2align 3
.L112:
	incq	%r12
	cmpq	%r12, %r14
	je	.L101
.L100:
	movzbl	1280(%rbx,%r12), %eax
	cmpl	$9, %eax
	jg	.L112
	movzwl	512(%rbx,%r12,2), %edi
	movl	%r13d, %ecx
	movl	$1, %edx
	movzbl	%r12b, %esi
	subl	%eax, %ecx
	incq	%r12
	shlx	%ecx, %edx, %edx
	movslq	%edx, %rdx
	shlx	%ecx, %edi, %edi
	movslq	%edi, %rdi
	addq	%rbx, %rdi
	call	memset@PLT
	cmpq	%r12, %r14
	jne	.L100
.L101:
	popq	%rbx
	.cfi_def_cfa_offset 40
	movl	$1, %eax
	popq	%rbp
	.cfi_def_cfa_offset 32
	popq	%r12
	.cfi_def_cfa_offset 24
	popq	%r13
	.cfi_def_cfa_offset 16
	popq	%r14
	.cfi_def_cfa_offset 8
	ret
	.cfi_endproc
.LFE640:
	.size	stbi__build_huffman, .-stbi__build_huffman
	.p2align 4
	.type	stbi__vertical_flip, @function
stbi__vertical_flip:
.LFB597:
	.cfi_startproc
	pushq	%r15
	.cfi_def_cfa_offset 16
	.cfi_offset 15, -16
	pushq	%r14
	.cfi_def_cfa_offset 24
	.cfi_offset 14, -24
	movslq	%ecx, %rcx
	pushq	%r13
	.cfi_def_cfa_offset 32
	.cfi_offset 13, -32
	pushq	%r12
	.cfi_def_cfa_offset 40
	.cfi_offset 12, -40
	movslq	%esi, %r13
	pushq	%rbp
	.cfi_def_cfa_offset 48
	.cfi_offset 6, -48
	pushq	%rbx
	.cfi_def_cfa_offset 56
	.cfi_offset 3, -56
	imulq	%rcx, %r13
	subq	$2104, %rsp
	.cfi_def_cfa_offset 2160
	movq	%fs:40, %rax
	movq	%rax, 2088(%rsp)
	xorl	%eax, %eax
	movl	%edx, %eax
	sarl	%eax
	movl	%eax, 28(%rsp)
	testl	%eax, %eax
	jle	.L113
	testq	%r13, %r13
	je	.L113
	movslq	%edx, %r12
	movq	%rdi, 8(%rsp)
	movl	$0, 24(%rsp)
	leaq	32(%rsp), %rbp
	decq	%r12
	imulq	%r13, %r12
	addq	%rdi, %r12
	movq	%r12, 16(%rsp)
	.p2align 4
	.p2align 3
.L116:
	movq	8(%rsp), %r12
	movq	%r13, %r15
	movq	16(%rsp), %rbx
	.p2align 4
	.p2align 3
.L115:
	movl	$2048, %edx
	movl	$2048, %ecx
	movq	%r12, %rsi
	movq	%rbp, %rdi
	cmpq	%rdx, %r15
	cmovbe	%r15, %rdx
	movq	%rdx, %r14
	call	__memcpy_chk@PLT
	movq	%rbx, %rsi
	movq	%r12, %rdi
	movq	%r14, %rdx
	addq	%r14, %r12
	call	memcpy@PLT
	movq	%rbx, %rdi
	movq	%r14, %rdx
	movq	%rbp, %rsi
	call	memcpy@PLT
	addq	%r14, %rbx
	subq	%r14, %r15
	jne	.L115
	incl	24(%rsp)
	addq	%r13, 8(%rsp)
	subq	%r13, 16(%rsp)
	movl	24(%rsp), %eax
	cmpl	28(%rsp), %eax
	jne	.L116
.L113:
	movq	2088(%rsp), %rax
	subq	%fs:40, %rax
	jne	.L125
	addq	$2104, %rsp
	.cfi_remember_state
	.cfi_def_cfa_offset 56
	popq	%rbx
	.cfi_def_cfa_offset 48
	popq	%rbp
	.cfi_def_cfa_offset 40
	popq	%r12
	.cfi_def_cfa_offset 32
	popq	%r13
	.cfi_def_cfa_offset 24
	popq	%r14
	.cfi_def_cfa_offset 16
	popq	%r15
	.cfi_def_cfa_offset 8
	ret
.L125:
	.cfi_restore_state
	call	__stack_chk_fail@PLT
	.cfi_endproc
.LFE597:
	.size	stbi__vertical_flip, .-stbi__vertical_flip
	.p2align 4
	.type	stbi__getn, @function
stbi__getn:
.LFB629:
	.cfi_startproc
	pushq	%r13
	.cfi_def_cfa_offset 16
	.cfi_offset 13, -16
	pushq	%r12
	.cfi_def_cfa_offset 24
	.cfi_offset 12, -24
	pushq	%rbp
	.cfi_def_cfa_offset 32
	.cfi_offset 6, -32
	movq	%rdi, %rbp
	pushq	%rbx
	.cfi_def_cfa_offset 40
	.cfi_offset 3, -40
	movq	%rsi, %rdi
	subq	$8, %rsp
	.cfi_def_cfa_offset 48
	cmpq	$0, 16(%rbp)
	movq	200(%rbp), %rax
	movslq	%edx, %rbx
	movq	192(%rbp), %rsi
	je	.L127
	movq	%rax, %r12
	subq	%rsi, %r12
	cmpl	%ebx, %r12d
	jl	.L131
.L127:
	leaq	(%rsi,%rbx), %rdx
	xorl	%r8d, %r8d
	cmpq	%rdx, %rax
	jnb	.L132
	addq	$8, %rsp
	.cfi_remember_state
	.cfi_def_cfa_offset 40
	movl	%r8d, %eax
	popq	%rbx
	.cfi_def_cfa_offset 32
	popq	%rbp
	.cfi_def_cfa_offset 24
	popq	%r12
	.cfi_def_cfa_offset 16
	popq	%r13
	.cfi_def_cfa_offset 8
	ret
	.p2align 4
	.p2align 3
.L132:
	.cfi_restore_state
	movq	%rbx, %rdx
	call	memcpy@PLT
	addq	%rbx, 192(%rbp)
	movl	$1, %r8d
	addq	$8, %rsp
	.cfi_remember_state
	.cfi_def_cfa_offset 40
	popq	%rbx
	.cfi_def_cfa_offset 32
	movl	%r8d, %eax
	popq	%rbp
	.cfi_def_cfa_offset 24
	popq	%r12
	.cfi_def_cfa_offset 16
	popq	%r13
	.cfi_def_cfa_offset 8
	ret
	.p2align 4
	.p2align 3
.L131:
	.cfi_restore_state
	movslq	%r12d, %r13
	subl	%r12d, %ebx
	movq	%r13, %rdx
	call	memcpy@PLT
	movq	40(%rbp), %rdi
	movl	%ebx, %edx
	leaq	(%rax,%r13), %rsi
	call	*16(%rbp)
	xorl	%r8d, %r8d
	cmpl	%eax, %ebx
	movq	200(%rbp), %rax
	sete	%r8b
	movq	%rax, 192(%rbp)
	addq	$8, %rsp
	.cfi_def_cfa_offset 40
	movl	%r8d, %eax
	popq	%rbx
	.cfi_def_cfa_offset 32
	popq	%rbp
	.cfi_def_cfa_offset 24
	popq	%r12
	.cfi_def_cfa_offset 16
	popq	%r13
	.cfi_def_cfa_offset 8
	ret
	.cfi_endproc
.LFE629:
	.size	stbi__getn, .-stbi__getn
	.p2align 4
	.type	stbiw__encode_png_line, @function
stbiw__encode_png_line:
.LFB822:
	.cfi_startproc
	pushq	%r15
	.cfi_def_cfa_offset 16
	.cfi_offset 15, -16
	pushq	%r14
	.cfi_def_cfa_offset 24
	.cfi_offset 14, -24
	movl	%ecx, %eax
	leaq	firstmap.19(%rip), %rcx
	pushq	%r13
	.cfi_def_cfa_offset 32
	.cfi_offset 13, -32
	pushq	%r12
	.cfi_def_cfa_offset 40
	.cfi_offset 12, -40
	movq	%rdi, %r10
	pushq	%rbp
	.cfi_def_cfa_offset 48
	.cfi_offset 6, -48
	pushq	%rbx
	.cfi_def_cfa_offset 56
	.cfi_offset 3, -56
	movl	%edx, %ebp
	leaq	mapping.20(%rip), %rdx
	subq	$32, %rsp
	.cfi_def_cfa_offset 88
	testl	%r8d, %r8d
	movl	%esi, %ebx
	cmove	%rcx, %rdx
	movslq	88(%rsp), %rcx
	movq	96(%rsp), %rdi
	movl	(%rdx,%rcx,4), %r11d
	movl	stbi__flip_vertically_on_write(%rip), %edx
	testl	%edx, %edx
	je	.L135
	decl	%eax
	negl	%ebx
	subl	%r8d, %eax
	imull	%esi, %eax
	cltq
	leaq	(%r10,%rax), %rsi
	testl	%r11d, %r11d
	je	.L136
.L268:
	testl	%r9d, %r9d
	jle	.L138
	movl	%ebx, %edx
	movl	%r9d, %r13d
	movq	%rsi, %r8
	movq	%rdi, %rcx
	negl	%edx
	subl	%ebx, %r13d
	movl	%r11d, %r12d
	leaq	.L141(%rip), %r10
	.p2align 4
	.p2align 3
.L147:
	cmpl	$6, %r11d
	ja	.L139
	movslq	(%r10,%r12,4), %rax
	addq	%r10, %rax
	notrack jmp	*%rax
	.section	.rodata
	.align 4
	.align 4
.L141:
	.long	.L139-.L141
	.long	.L140-.L141
	.long	.L143-.L141
	.long	.L144-.L141
	.long	.L143-.L141
	.long	.L140-.L141
	.long	.L140-.L141
	.text
	.p2align 4
	.p2align 3
.L140:
	movzbl	(%r8), %eax
	movb	%al, (%rcx)
.L139:
	incl	%edx
	incq	%r8
	incq	%rcx
	cmpl	%edx, %r13d
	jne	.L147
.L138:
	cmpl	$6, %r11d
	ja	.L265
	leaq	.L150(%rip), %rdx
	movslq	(%rdx,%r11,4), %rax
	addq	%rdx, %rax
	notrack jmp	*%rax
	.section	.rodata
	.align 4
	.align 4
.L150:
	.long	.L265-.L150
	.long	.L155-.L150
	.long	.L154-.L150
	.long	.L153-.L150
	.long	.L152-.L150
	.long	.L151-.L150
	.long	.L149-.L150
	.text
	.p2align 4
	.p2align 3
.L143:
	movslq	%edx, %r14
	movzbl	(%r8), %eax
	subb	(%rsi,%r14), %al
	movb	%al, (%rcx)
	jmp	.L139
	.p2align 4
	.p2align 3
.L144:
	movslq	%edx, %rax
	movzbl	(%rsi,%rax), %r14d
	movzbl	(%r8), %eax
	shrb	%r14b
	subl	%r14d, %eax
	movb	%al, (%rcx)
	jmp	.L139
	.p2align 4
	.p2align 3
.L152:
	movl	%ebp, %r14d
	imull	%r9d, %r14d
	cmpl	%r14d, %r9d
	jge	.L265
	movslq	%r9d, %rdx
	movslq	%ebx, %r10
	negl	%ebx
	movl	%r14d, %r12d
	movq	%rdx, %r11
	leaq	(%rdi,%rdx), %rbp
	movslq	%ebx, %rax
	subl	%r9d, %r12d
	subq	%r10, %r11
	movq	%rbp, %rcx
	leaq	1(%rsi,%rax), %rbx
	leaq	1(%rsi), %r13
	leaq	1(%rsi,%r11), %r8
	subq	%r8, %rcx
	cmpq	$14, %rcx
	movq	%rbp, %rcx
	seta	%r8b
	subq	%rbx, %rcx
	leaq	1(%rsi,%rdx), %rbx
	cmpq	$14, %rcx
	seta	%cl
	andl	%ecx, %r8d
	movq	%rbp, %rcx
	subq	%rbx, %rcx
	movq	%rbp, %rbx
	cmpq	$14, %rcx
	seta	%cl
	subq	%r13, %rbx
	cmpq	$14, %rbx
	seta	%bl
	andl	%ebx, %ecx
	testb	%cl, %r8b
	je	.L210
	leal	-1(%r12), %ecx
	cmpl	$14, %ecx
	jbe	.L210
	vmovdqa	.LC13(%rip), %xmm14
	movl	%r12d, %r8d
	leaq	(%rsi,%rdx), %rbx
	addq	%rsi, %rax
	shrl	$4, %r8d
	addq	%rsi, %r11
	xorl	%ecx, %ecx
	salq	$4, %r8
	.p2align 4
	.p2align 3
.L184:
	vmovdqu	(%rax,%rcx), %xmm2
	vmovdqu	(%rax,%rcx), %xmm3
	vmovdqu	(%rsi,%rcx), %xmm6
	vpmovzxbw	%xmm2, %xmm10
	vmovdqu	(%r11,%rcx), %xmm2
	vpsrldq	$8, %xmm3, %xmm0
	vpmovzxbw	%xmm0, %xmm0
	vpmovzxbw	%xmm6, %xmm5
	vmovdqu	(%rsi,%rcx), %xmm6
	vpmovzxwd	%xmm0, %xmm11
	vpsrldq	$8, %xmm0, %xmm0
	vpmovzxwd	%xmm0, %xmm4
	vpmovzxwd	%xmm5, %xmm15
	vpmovzxwd	%xmm10, %xmm12
	vpsrldq	$8, %xmm5, %xmm5
	vmovdqa	%xmm4, -120(%rsp)
	vpmovzxwd	%xmm5, %xmm5
	vpsrldq	$8, %xmm10, %xmm10
	vpmovzxwd	%xmm10, %xmm10
	vpmovzxbw	%xmm2, %xmm3
	vmovdqu	(%r11,%rcx), %xmm2
	vpsrldq	$8, %xmm6, %xmm0
	vpmovzxbw	%xmm0, %xmm0
	vpmovzxwd	%xmm0, %xmm13
	vpsrldq	$8, %xmm0, %xmm0
	vpmovzxwd	%xmm0, %xmm0
	vpsrldq	$8, %xmm2, %xmm1
	vpmovzxbw	%xmm1, %xmm1
	vpmovzxwd	%xmm3, %xmm2
	vpsrldq	$8, %xmm3, %xmm3
	vpmovzxwd	%xmm1, %xmm4
	vpsrldq	$8, %xmm1, %xmm1
	vpmovzxwd	%xmm1, %xmm1
	vpaddd	%xmm15, %xmm2, %xmm7
	vpaddd	%xmm0, %xmm1, %xmm8
	vpsubd	-120(%rsp), %xmm8, %xmm8
	vpsubd	%xmm12, %xmm7, %xmm7
	vpaddd	%xmm13, %xmm4, %xmm9
	vpsubd	%xmm11, %xmm9, %xmm9
	vpmovzxwd	%xmm3, %xmm3
	vpsubd	%xmm15, %xmm7, %xmm15
	vpaddd	%xmm5, %xmm3, %xmm6
	vpsubd	%xmm2, %xmm7, %xmm2
	vpsubd	%xmm12, %xmm7, %xmm7
	vpabsd	%xmm15, %xmm15
	vpsubd	%xmm10, %xmm6, %xmm6
	vpabsd	%xmm2, %xmm2
	vpabsd	%xmm7, %xmm7
	vpsubd	%xmm13, %xmm9, %xmm13
	vpsubd	%xmm4, %xmm9, %xmm4
	vpsubd	%xmm11, %xmm9, %xmm9
	vpsubd	%xmm5, %xmm6, %xmm5
	vmovdqa	%xmm15, -72(%rsp)
	vpabsd	%xmm4, %xmm4
	vpsubd	%xmm3, %xmm6, %xmm3
	vpsubd	%xmm10, %xmm6, %xmm6
	vpabsd	%xmm9, %xmm10
	vpminsd	%xmm10, %xmm4, %xmm11
	vpabsd	%xmm3, %xmm3
	vpabsd	%xmm6, %xmm6
	vmovdqa	%xmm10, -56(%rsp)
	vpabsd	%xmm5, %xmm5
	vpabsd	%xmm13, %xmm13
	vpsubd	%xmm0, %xmm8, %xmm0
	vpsubd	%xmm1, %xmm8, %xmm1
	vpsubd	-120(%rsp), %xmm8, %xmm8
	vmovdqa	%xmm11, -120(%rsp)
	vpabsd	%xmm0, %xmm0
	vpabsd	%xmm1, %xmm1
	vpcmpgtd	%xmm11, %xmm13, %xmm11
	vmovdqa	%xmm0, -104(%rsp)
	vpminsd	%xmm6, %xmm3, %xmm0
	vpabsd	%xmm8, %xmm12
	vpminsd	%xmm7, %xmm2, %xmm8
	vpcmpgtd	%xmm8, %xmm15, %xmm10
	vpcmpeqd	%xmm8, %xmm2, %xmm15
	vpminsd	%xmm12, %xmm1, %xmm9
	vmovdqa	%xmm12, -40(%rsp)
	vpcmpgtd	%xmm7, %xmm2, %xmm2
	vmovdqa	-72(%rsp), %xmm7
	vmovdqa	%xmm10, -88(%rsp)
	vpcmpgtd	%xmm0, %xmm5, %xmm12
	vpand	-88(%rsp), %xmm15, %xmm15
	vmovdqa	-104(%rsp), %xmm10
	vpand	-88(%rsp), %xmm2, %xmm2
	vpminsd	%xmm7, %xmm8, %xmm8
	vmovdqa	%xmm15, -24(%rsp)
	vpcmpeqd	%xmm7, %xmm8, %xmm8
	vmovdqa	-104(%rsp), %xmm7
	vpcmpeqd	%xmm0, %xmm3, %xmm15
	vpminsd	%xmm0, %xmm5, %xmm0
	vpand	%xmm8, %xmm14, %xmm8
	vpcmpeqd	%xmm0, %xmm5, %xmm0
	vpminsd	-120(%rsp), %xmm13, %xmm5
	vpand	%xmm12, %xmm15, %xmm15
	vpcmpgtd	%xmm9, %xmm10, %xmm10
	vmovdqa	%xmm15, -8(%rsp)
	vpcmpeqd	-120(%rsp), %xmm4, %xmm15
	vpand	%xmm0, %xmm14, %xmm0
	vpand	%xmm11, %xmm15, %xmm15
	vpcmpgtd	%xmm6, %xmm3, %xmm3
	vpackusdw	%xmm0, %xmm8, %xmm0
	vpand	.LC2(%rip), %xmm0, %xmm0
	vmovdqa	%xmm15, 8(%rsp)
	vpcmpeqd	%xmm9, %xmm1, %xmm15
	vpand	%xmm12, %xmm3, %xmm3
	vpcmpgtd	-56(%rsp), %xmm4, %xmm4
	vpcmpgtd	-40(%rsp), %xmm1, %xmm1
	vpand	%xmm2, %xmm14, %xmm2
	vpand	%xmm3, %xmm14, %xmm3
	vpand	%xmm11, %xmm4, %xmm4
	vpand	%xmm10, %xmm1, %xmm1
	vpackusdw	%xmm3, %xmm2, %xmm2
	vpand	%xmm10, %xmm15, %xmm15
	vpminsd	%xmm7, %xmm9, %xmm9
	vpand	%xmm1, %xmm14, %xmm1
	vpand	%xmm4, %xmm14, %xmm4
	vpand	%xmm15, %xmm14, %xmm15
	vpcmpeqd	%xmm7, %xmm9, %xmm6
	vpackusdw	%xmm1, %xmm4, %xmm4
	vpcmpeqd	%xmm5, %xmm13, %xmm5
	vpand	%xmm6, %xmm14, %xmm6
	vpand	%xmm5, %xmm14, %xmm5
	vpackusdw	%xmm6, %xmm5, %xmm5
	vpand	.LC2(%rip), %xmm5, %xmm5
	vpackuswb	%xmm5, %xmm0, %xmm0
	vmovdqu	(%r11,%rcx), %xmm5
	vpblendvb	%xmm0, (%rsi,%rcx), %xmm5, %xmm0
	vpand	-24(%rsp), %xmm14, %xmm5
	vpand	-8(%rsp), %xmm14, %xmm6
	vpand	.LC2(%rip), %xmm4, %xmm4
	vpand	.LC2(%rip), %xmm2, %xmm1
	vpackusdw	%xmm6, %xmm5, %xmm5
	vpand	8(%rsp), %xmm14, %xmm6
	vpand	.LC2(%rip), %xmm5, %xmm5
	vpackuswb	%xmm4, %xmm1, %xmm1
	vmovdqu	(%rbx,%rcx), %xmm4
	vpackusdw	%xmm15, %xmm6, %xmm6
	vpand	.LC2(%rip), %xmm6, %xmm6
	vpackuswb	%xmm6, %xmm5, %xmm5
	vpblendvb	%xmm5, (%r11,%rcx), %xmm0, %xmm0
	vpblendvb	%xmm1, (%rax,%rcx), %xmm0, %xmm0
	vpsubb	%xmm0, %xmm4, %xmm0
	vmovdqu	%xmm0, 0(%rbp,%rcx)
	addq	$16, %rcx
	cmpq	%r8, %rcx
	jne	.L184
	movl	%r12d, %ecx
	andl	$-16, %ecx
	addl	%ecx, %r9d
	cmpl	%ecx, %r12d
	je	.L265
	movq	%rsi, %rbx
	leaq	(%rdx,%r10), %rcx
	movq	%rsi, %r15
	movslq	%r9d, %r9
	subq	%rdx, %rbx
	subq	%rcx, %r15
	movq	%rbx, -120(%rsp)
	.p2align 4
	.p2align 3
.L188:
	movq	-120(%rsp), %rbx
	movzbl	(%rax,%r9), %r8d
	movzbl	(%r15,%r9), %ecx
	movzbl	(%rsi,%r9), %r10d
	movzbl	(%rbx,%r9), %ebp
	movl	%r8d, %r13d
	movl	%ecx, %r12d
	leal	(%r8,%rbp), %edx
	movl	%ebp, %ebx
	subl	%ecx, %edx
	movl	%edx, %r11d
	subl	%r8d, %r11d
	movl	%r11d, %r8d
	negl	%r8d
	cmovs	%r11d, %r8d
	movl	%edx, %r11d
	subl	%ecx, %r11d
	movl	%r11d, %ecx
	negl	%ecx
	cmovs	%r11d, %ecx
	subl	%ebp, %edx
	movl	%edx, %r11d
	negl	%r11d
	cmovns	%r11d, %edx
	cmpl	%ecx, %r8d
	movl	%ecx, %r11d
	cmovle	%r8d, %r11d
	cmpl	%r11d, %edx
	jle	.L189
	cmpl	%ecx, %r8d
	movl	%r12d, %ebx
	cmovle	%r13d, %ebx
.L189:
	subl	%ebx, %r10d
	movb	%r10b, (%rdi,%r9)
	incq	%r9
	cmpl	%r9d, %r14d
	jg	.L188
.L265:
	addq	$32, %rsp
	.cfi_remember_state
	.cfi_def_cfa_offset 56
	popq	%rbx
	.cfi_def_cfa_offset 48
	popq	%rbp
	.cfi_def_cfa_offset 40
	popq	%r12
	.cfi_def_cfa_offset 32
	popq	%r13
	.cfi_def_cfa_offset 24
	popq	%r14
	.cfi_def_cfa_offset 16
	popq	%r15
	.cfi_def_cfa_offset 8
	ret
	.p2align 4
	.p2align 3
.L135:
	.cfi_restore_state
	imull	%esi, %r8d
	movslq	%r8d, %r8
	leaq	(%r10,%r8), %rsi
	testl	%r11d, %r11d
	jne	.L268
.L136:
	addq	$32, %rsp
	.cfi_remember_state
	.cfi_def_cfa_offset 56
	imull	%ebp, %r9d
	popq	%rbx
	.cfi_def_cfa_offset 48
	popq	%rbp
	.cfi_def_cfa_offset 40
	popq	%r12
	.cfi_def_cfa_offset 32
	popq	%r13
	.cfi_def_cfa_offset 24
	popq	%r14
	.cfi_def_cfa_offset 16
	popq	%r15
	.cfi_def_cfa_offset 8
	movslq	%r9d, %rdx
	jmp	memcpy@PLT
	.p2align 4
	.p2align 3
.L149:
	.cfi_restore_state
	imull	%r9d, %ebp
	cmpl	%ebp, %r9d
	jge	.L265
	movslq	%r9d, %rcx
	movl	%ebp, %r10d
	leaq	1(%rsi), %rbx
	leaq	(%rdi,%rcx), %r8
	leaq	1(%rsi,%rcx), %r11
	subl	%r9d, %r10d
	movq	%r8, %rdx
	leal	-1(%r10), %eax
	subq	%r11, %rdx
	cmpq	$14, %rdx
	movq	%r8, %rdx
	seta	%r11b
	subq	%rbx, %rdx
	cmpq	$14, %rdx
	seta	%dl
	testb	%dl, %r11b
	je	.L214
	cmpl	$6, %eax
	jbe	.L214
	cmpl	$14, %eax
	jbe	.L215
	movl	%r10d, %edx
	leaq	(%rsi,%rcx), %r11
	xorl	%eax, %eax
	shrl	$4, %edx
	salq	$4, %rdx
	.p2align 4
	.p2align 3
.L198:
	vmovdqu	(%r11,%rax), %xmm3
	vpsubb	(%rsi,%rax), %xmm3, %xmm0
	vmovdqu	%xmm0, (%r8,%rax)
	addq	$16, %rax
	cmpq	%rdx, %rax
	jne	.L198
	movl	%r10d, %edx
	andl	$-16, %edx
	leal	(%rdx,%r9), %r8d
	cmpl	%edx, %r10d
	je	.L265
	subl	%edx, %r10d
	leal	-1(%r10), %eax
	cmpl	$6, %eax
	jbe	.L201
.L197:
	leaq	(%rcx,%rdx), %rax
	vmovq	(%rsi,%rdx), %xmm1
	vmovq	(%rsi,%rax), %xmm0
	vpsubb	%xmm1, %xmm0, %xmm0
	vmovq	%xmm0, (%rdi,%rax)
	movl	%r10d, %eax
	andl	$-8, %eax
	addl	%eax, %r8d
	cmpl	%eax, %r10d
	je	.L265
.L201:
	movl	%r8d, %edx
	movslq	%r8d, %rcx
	subl	%r9d, %edx
	movzbl	(%rsi,%rcx), %eax
	movslq	%edx, %rdx
	subb	(%rsi,%rdx), %al
	movb	%al, (%rdi,%rcx)
	leal	1(%r8), %eax
	cmpl	%eax, %ebp
	jle	.L265
	movslq	%eax, %rcx
	subl	%r9d, %eax
	cltq
	movzbl	(%rsi,%rcx), %edx
	subb	(%rsi,%rax), %dl
	leal	2(%r8), %eax
	movb	%dl, (%rdi,%rcx)
	cmpl	%eax, %ebp
	jle	.L265
	movslq	%eax, %rcx
	subl	%r9d, %eax
	cltq
	movzbl	(%rsi,%rcx), %edx
	subb	(%rsi,%rax), %dl
	leal	3(%r8), %eax
	movb	%dl, (%rdi,%rcx)
	cmpl	%eax, %ebp
	jle	.L265
	movslq	%eax, %rcx
	subl	%r9d, %eax
	cltq
	movzbl	(%rsi,%rcx), %edx
	subb	(%rsi,%rax), %dl
	leal	4(%r8), %eax
	movb	%dl, (%rdi,%rcx)
	cmpl	%eax, %ebp
	jle	.L265
	movslq	%eax, %rcx
	subl	%r9d, %eax
	cltq
	movzbl	(%rsi,%rcx), %edx
	subb	(%rsi,%rax), %dl
	leal	5(%r8), %eax
	movb	%dl, (%rdi,%rcx)
	cmpl	%eax, %ebp
	jle	.L265
	movslq	%eax, %rcx
	subl	%r9d, %eax
	cltq
	movzbl	(%rsi,%rcx), %edx
	subb	(%rsi,%rax), %dl
	leal	6(%r8), %eax
	movb	%dl, (%rdi,%rcx)
	cmpl	%eax, %ebp
	jle	.L265
.L267:
	movslq	%eax, %rcx
	subl	%r9d, %eax
	cltq
	movzbl	(%rsi,%rcx), %edx
	subb	(%rsi,%rax), %dl
	movb	%dl, (%rdi,%rcx)
	jmp	.L265
	.p2align 4
	.p2align 3
.L155:
	imull	%r9d, %ebp
	cmpl	%ebp, %r9d
	jge	.L265
	movslq	%r9d, %r8
	movl	%ebp, %r10d
	leaq	1(%rsi), %rbx
	leaq	(%rdi,%r8), %rcx
	leaq	1(%rsi,%r8), %r11
	subl	%r9d, %r10d
	movq	%rcx, %rdx
	leal	-1(%r10), %eax
	subq	%r11, %rdx
	cmpq	$14, %rdx
	movq	%rcx, %rdx
	seta	%r11b
	subq	%rbx, %rdx
	cmpq	$14, %rdx
	seta	%dl
	testb	%dl, %r11b
	je	.L206
	cmpl	$6, %eax
	jbe	.L206
	cmpl	$14, %eax
	jbe	.L207
	movl	%r10d, %edx
	leaq	(%rsi,%r8), %r11
	xorl	%eax, %eax
	shrl	$4, %edx
	salq	$4, %rdx
	.p2align 4
	.p2align 3
.L164:
	vmovdqu	(%r11,%rax), %xmm3
	vpsubb	(%rsi,%rax), %xmm3, %xmm0
	vmovdqu	%xmm0, (%rcx,%rax)
	addq	$16, %rax
	cmpq	%rdx, %rax
	jne	.L164
	movl	%r10d, %edx
	andl	$-16, %edx
	leal	(%rdx,%r9), %ecx
	cmpl	%r10d, %edx
	je	.L265
	subl	%edx, %r10d
	leal	-1(%r10), %eax
	cmpl	$6, %eax
	jbe	.L167
.L163:
	leaq	(%rdx,%r8), %rax
	vmovq	(%rsi,%rdx), %xmm1
	vmovq	(%rsi,%rax), %xmm0
	vpsubb	%xmm1, %xmm0, %xmm0
	vmovq	%xmm0, (%rdi,%rax)
	movl	%r10d, %eax
	andl	$-8, %eax
	addl	%eax, %ecx
	cmpl	%r10d, %eax
	je	.L265
.L167:
	movl	%ecx, %edx
	movslq	%ecx, %r8
	subl	%r9d, %edx
	movzbl	(%rsi,%r8), %eax
	movslq	%edx, %rdx
	subb	(%rsi,%rdx), %al
	movb	%al, (%rdi,%r8)
	leal	1(%rcx), %eax
	cmpl	%eax, %ebp
	jle	.L265
	movslq	%eax, %r8
	subl	%r9d, %eax
	cltq
	movzbl	(%rsi,%r8), %edx
	subb	(%rsi,%rax), %dl
	leal	2(%rcx), %eax
	movb	%dl, (%rdi,%r8)
	cmpl	%ebp, %eax
	jge	.L265
	movslq	%eax, %r8
	subl	%r9d, %eax
	cltq
	movzbl	(%rsi,%r8), %edx
	subb	(%rsi,%rax), %dl
	leal	3(%rcx), %eax
	movb	%dl, (%rdi,%r8)
	cmpl	%eax, %ebp
	jle	.L265
	movslq	%eax, %r8
	subl	%r9d, %eax
	cltq
	movzbl	(%rsi,%r8), %edx
	subb	(%rsi,%rax), %dl
	leal	4(%rcx), %eax
	movb	%dl, (%rdi,%r8)
	cmpl	%eax, %ebp
	jle	.L265
	movslq	%eax, %r8
	subl	%r9d, %eax
	cltq
	movzbl	(%rsi,%r8), %edx
	subb	(%rsi,%rax), %dl
	leal	5(%rcx), %eax
	movb	%dl, (%rdi,%r8)
	cmpl	%ebp, %eax
	jge	.L265
	movslq	%eax, %r8
	subl	%r9d, %eax
	cltq
	movzbl	(%rsi,%r8), %edx
	subb	(%rsi,%rax), %dl
	leal	6(%rcx), %eax
	movb	%dl, (%rdi,%r8)
	cmpl	%ebp, %eax
	jl	.L267
	jmp	.L265
	.p2align 4
	.p2align 3
.L154:
	imull	%r9d, %ebp
	cmpl	%r9d, %ebp
	jle	.L265
	movslq	%r9d, %rcx
	movl	%ebp, %r8d
	movslq	%ebx, %r10
	leaq	(%rdi,%rcx), %r12
	leaq	1(%rsi,%rcx), %r14
	subl	%r9d, %r8d
	movq	%rcx, %r11
	movq	%r12, %r13
	leal	-1(%r8), %edx
	subq	%r10, %r11
	leaq	1(%rcx), %rax
	subq	%r14, %r13
	cmpq	$14, %r13
	seta	%r14b
	cmpl	$6, %edx
	seta	%r13b
	testb	%r13b, %r14b
	je	.L170
	leaq	1(%rsi,%r11), %r14
	movq	%r12, %r13
	subq	%r14, %r13
	cmpq	$14, %r13
	jbe	.L170
	cmpl	$14, %edx
	jbe	.L208
	movl	%r8d, %edx
	leaq	(%rsi,%rcx), %r10
	addq	%rsi, %r11
	xorl	%eax, %eax
	shrl	$4, %edx
	salq	$4, %rdx
	.p2align 4
	.p2align 3
.L172:
	vmovdqu	(%r10,%rax), %xmm2
	vpsubb	(%r11,%rax), %xmm2, %xmm0
	vmovdqu	%xmm0, (%r12,%rax)
	addq	$16, %rax
	cmpq	%rdx, %rax
	jne	.L172
	movl	%r8d, %eax
	andl	$-16, %eax
	addl	%eax, %r9d
	cmpl	%eax, %r8d
	je	.L265
	subl	%eax, %r8d
	leal	-1(%r8), %edx
	cmpl	$6, %edx
	jbe	.L175
.L171:
	addq	%rax, %rcx
	vmovq	(%r11,%rax), %xmm1
	movl	%r8d, %eax
	vmovq	(%rsi,%rcx), %xmm0
	vpsubb	%xmm1, %xmm0, %xmm0
	andl	$-8, %eax
	addl	%eax, %r9d
	vmovq	%xmm0, (%rdi,%rcx)
	cmpl	%r8d, %eax
	je	.L265
.L175:
	movl	%r9d, %edx
	movslq	%r9d, %rcx
	subl	%ebx, %edx
	movzbl	(%rsi,%rcx), %eax
	movslq	%edx, %rdx
	subb	(%rsi,%rdx), %al
	movb	%al, (%rdi,%rcx)
	leal	1(%r9), %eax
	cmpl	%ebp, %eax
	jge	.L265
	movslq	%eax, %rcx
	subl	%ebx, %eax
	cltq
	movzbl	(%rsi,%rcx), %edx
	subb	(%rsi,%rax), %dl
	leal	2(%r9), %eax
	movb	%dl, (%rdi,%rcx)
	cmpl	%ebp, %eax
	jge	.L265
	movslq	%eax, %rcx
	subl	%ebx, %eax
	cltq
	movzbl	(%rsi,%rcx), %edx
	subb	(%rsi,%rax), %dl
	leal	3(%r9), %eax
	movb	%dl, (%rdi,%rcx)
	cmpl	%eax, %ebp
	jle	.L265
	movslq	%eax, %rcx
	subl	%ebx, %eax
	cltq
	movzbl	(%rsi,%rcx), %edx
	subb	(%rsi,%rax), %dl
	leal	4(%r9), %eax
	movb	%dl, (%rdi,%rcx)
	cmpl	%ebp, %eax
	jge	.L265
	movslq	%eax, %rcx
	subl	%ebx, %eax
	cltq
	movzbl	(%rsi,%rcx), %edx
	subb	(%rsi,%rax), %dl
	leal	5(%r9), %eax
	movb	%dl, (%rdi,%rcx)
	cmpl	%eax, %ebp
	jle	.L265
	movslq	%eax, %rcx
	subl	%ebx, %eax
	addl	$6, %r9d
	cltq
	movzbl	(%rsi,%rcx), %edx
	subb	(%rsi,%rax), %dl
	movb	%dl, (%rdi,%rcx)
	cmpl	%r9d, %ebp
	jle	.L265
	movslq	%r9d, %rcx
	subl	%ebx, %r9d
	movslq	%r9d, %rax
	movzbl	(%rsi,%rcx), %edx
	subb	(%rsi,%rax), %dl
	movb	%dl, (%rdi,%rcx)
	jmp	.L265
	.p2align 4
	.p2align 3
.L153:
	imull	%r9d, %ebp
	cmpl	%r9d, %ebp
	jle	.L265
	movslq	%r9d, %rax
	movl	%ebp, %r11d
	movslq	%ebx, %rdx
	leaq	1(%rsi), %r13
	leaq	(%rdi,%rax), %r10
	leaq	1(%rsi,%rax), %r12
	movq	%rax, %rcx
	subl	%r9d, %r11d
	movq	%r10, %r8
	subq	%rdx, %rcx
	subq	%r12, %r8
	cmpq	$14, %r8
	movq	%r10, %r8
	seta	%r12b
	subq	%r13, %r8
	cmpq	$14, %r8
	seta	%r8b
	testb	%r8b, %r12b
	je	.L209
	leaq	1(%rsi,%rcx), %r12
	movq	%r10, %r8
	subq	%r12, %r8
	cmpq	$14, %r8
	leal	-1(%r11), %r8d
	seta	%r12b
	cmpl	$14, %r8d
	seta	%r8b
	testb	%r8b, %r12b
	je	.L209
	vmovdqa	.LC11(%rip), %xmm2
	vmovdqa	.LC12(%rip), %xmm3
	movl	%r11d, %edx
	leaq	(%rsi,%rax), %r8
	shrl	$4, %edx
	addq	%rsi, %rcx
	xorl	%eax, %eax
	salq	$4, %rdx
	.p2align 4
	.p2align 3
.L179:
	vmovdqu	(%rsi,%rax), %xmm4
	vpsrlw	$1, %xmm4, %xmm0
	vmovdqu	(%rcx,%rax), %xmm4
	vpand	%xmm0, %xmm2, %xmm0
	vpsrlw	$1, %xmm4, %xmm1
	vmovdqu	(%r8,%rax), %xmm4
	vpand	%xmm1, %xmm2, %xmm1
	vpaddb	%xmm1, %xmm0, %xmm0
	vpsubb	%xmm0, %xmm4, %xmm1
	vmovdqu	(%rsi,%rax), %xmm4
	vpand	(%rcx,%rax), %xmm4, %xmm0
	vpand	%xmm3, %xmm0, %xmm0
	vpsubb	%xmm0, %xmm1, %xmm0
	vmovdqu	%xmm0, (%r10,%rax)
	addq	$16, %rax
	cmpq	%rdx, %rax
	jne	.L179
	movl	%r11d, %edx
	andl	$-16, %edx
	leal	(%r9,%rdx), %eax
	cmpl	%edx, %r11d
	je	.L265
	movl	%eax, %ecx
	movslq	%edx, %rdx
	movslq	%eax, %r8
	subl	%ebx, %ecx
	movzbl	(%rsi,%rdx), %edx
	movslq	%ecx, %rcx
	movzbl	(%rsi,%rcx), %ecx
	addl	%ecx, %edx
	movzbl	(%rsi,%r8), %ecx
	sarl	%edx
	subl	%edx, %ecx
	leal	1(%rax), %edx
	movb	%cl, (%rdi,%r8)
	cmpl	%edx, %ebp
	jle	.L265
	movl	%edx, %ecx
	movslq	%edx, %r8
	subl	%ebx, %edx
	subl	%r9d, %ecx
	movslq	%edx, %rdx
	movslq	%ecx, %rcx
	movzbl	(%rsi,%rdx), %edx
	movzbl	(%rsi,%rcx), %ecx
	addl	%ecx, %edx
	movzbl	(%rsi,%r8), %ecx
	sarl	%edx
	subl	%edx, %ecx
	leal	2(%rax), %edx
	movb	%cl, (%rdi,%r8)
	cmpl	%edx, %ebp
	jle	.L265
	movl	%edx, %ecx
	movslq	%edx, %r8
	subl	%ebx, %edx
	subl	%r9d, %ecx
	movslq	%edx, %rdx
	movslq	%ecx, %rcx
	movzbl	(%rsi,%rdx), %edx
	movzbl	(%rsi,%rcx), %ecx
	addl	%ecx, %edx
	movzbl	(%rsi,%r8), %ecx
	sarl	%edx
	subl	%edx, %ecx
	leal	3(%rax), %edx
	movb	%cl, (%rdi,%r8)
	cmpl	%edx, %ebp
	jle	.L265
	movl	%edx, %ecx
	movslq	%edx, %r8
	subl	%ebx, %edx
	subl	%r9d, %ecx
	movslq	%edx, %rdx
	movslq	%ecx, %rcx
	movzbl	(%rsi,%rdx), %edx
	movzbl	(%rsi,%rcx), %ecx
	addl	%ecx, %edx
	movzbl	(%rsi,%r8), %ecx
	sarl	%edx
	subl	%edx, %ecx
	leal	4(%rax), %edx
	movb	%cl, (%rdi,%r8)
	cmpl	%edx, %ebp
	jle	.L265
	movl	%edx, %ecx
	movslq	%edx, %r8
	subl	%ebx, %edx
	subl	%r9d, %ecx
	movslq	%edx, %rdx
	movslq	%ecx, %rcx
	movzbl	(%rsi,%rdx), %edx
	movzbl	(%rsi,%rcx), %ecx
	addl	%ecx, %edx
	movzbl	(%rsi,%r8), %ecx
	sarl	%edx
	subl	%edx, %ecx
	leal	5(%rax), %edx
	movb	%cl, (%rdi,%r8)
	cmpl	%edx, %ebp
	jle	.L265
	movl	%edx, %ecx
	movslq	%edx, %r8
	subl	%ebx, %edx
	subl	%r9d, %ecx
	movslq	%edx, %rdx
	movslq	%ecx, %rcx
	movzbl	(%rsi,%rdx), %edx
	movzbl	(%rsi,%rcx), %ecx
	addl	%ecx, %edx
	movzbl	(%rsi,%r8), %ecx
	sarl	%edx
	subl	%edx, %ecx
	leal	6(%rax), %edx
	movb	%cl, (%rdi,%r8)
	cmpl	%edx, %ebp
	jle	.L265
	movl	%edx, %ecx
	movslq	%edx, %r8
	subl	%ebx, %edx
	subl	%r9d, %ecx
	movslq	%edx, %rdx
	movslq	%ecx, %rcx
	movzbl	(%rsi,%rdx), %edx
	movzbl	(%rsi,%rcx), %ecx
	addl	%ecx, %edx
	movzbl	(%rsi,%r8), %ecx
	sarl	%edx
	subl	%edx, %ecx
	leal	7(%rax), %edx
	movb	%cl, (%rdi,%r8)
	cmpl	%edx, %ebp
	jle	.L265
	movl	%edx, %ecx
	movslq	%edx, %r8
	subl	%ebx, %edx
	subl	%r9d, %ecx
	movslq	%edx, %rdx
	movslq	%ecx, %rcx
	movzbl	(%rsi,%rdx), %edx
	movzbl	(%rsi,%rcx), %ecx
	addl	%ecx, %edx
	movzbl	(%rsi,%r8), %ecx
	sarl	%edx
	subl	%edx, %ecx
	leal	8(%rax), %edx
	movb	%cl, (%rdi,%r8)
	cmpl	%edx, %ebp
	jle	.L265
	movl	%edx, %ecx
	movslq	%edx, %r8
	subl	%ebx, %edx
	subl	%r9d, %ecx
	movslq	%edx, %rdx
	movslq	%ecx, %rcx
	movzbl	(%rsi,%rdx), %edx
	movzbl	(%rsi,%rcx), %ecx
	addl	%ecx, %edx
	movzbl	(%rsi,%r8), %ecx
	sarl	%edx
	subl	%edx, %ecx
	leal	9(%rax), %edx
	movb	%cl, (%rdi,%r8)
	cmpl	%edx, %ebp
	jle	.L265
	movl	%edx, %ecx
	movslq	%edx, %r8
	subl	%ebx, %edx
	subl	%r9d, %ecx
	movslq	%edx, %rdx
	movslq	%ecx, %rcx
	movzbl	(%rsi,%rdx), %edx
	movzbl	(%rsi,%rcx), %ecx
	addl	%ecx, %edx
	movzbl	(%rsi,%r8), %ecx
	sarl	%edx
	subl	%edx, %ecx
	leal	10(%rax), %edx
	movb	%cl, (%rdi,%r8)
	cmpl	%edx, %ebp
	jle	.L265
	movl	%edx, %ecx
	movslq	%edx, %r8
	subl	%ebx, %edx
	subl	%r9d, %ecx
	movslq	%edx, %rdx
	movslq	%ecx, %rcx
	movzbl	(%rsi,%rdx), %edx
	movzbl	(%rsi,%rcx), %ecx
	addl	%ecx, %edx
	movzbl	(%rsi,%r8), %ecx
	sarl	%edx
	subl	%edx, %ecx
	leal	11(%rax), %edx
	movb	%cl, (%rdi,%r8)
	cmpl	%edx, %ebp
	jle	.L265
	movl	%edx, %ecx
	movslq	%edx, %r8
	subl	%ebx, %edx
	subl	%r9d, %ecx
	movslq	%edx, %rdx
	movslq	%ecx, %rcx
	movzbl	(%rsi,%rdx), %edx
	movzbl	(%rsi,%rcx), %ecx
	addl	%ecx, %edx
	movzbl	(%rsi,%r8), %ecx
	sarl	%edx
	subl	%edx, %ecx
	leal	12(%rax), %edx
	movb	%cl, (%rdi,%r8)
	cmpl	%edx, %ebp
	jle	.L265
	movl	%edx, %ecx
	movslq	%edx, %r8
	subl	%ebx, %edx
	subl	%r9d, %ecx
	movslq	%edx, %rdx
	movslq	%ecx, %rcx
	movzbl	(%rsi,%rdx), %edx
	movzbl	(%rsi,%rcx), %ecx
	addl	%ecx, %edx
	movzbl	(%rsi,%r8), %ecx
	sarl	%edx
	subl	%edx, %ecx
	leal	13(%rax), %edx
	movb	%cl, (%rdi,%r8)
	cmpl	%edx, %ebp
	jle	.L265
	movl	%edx, %ecx
	movslq	%edx, %r8
	subl	%ebx, %edx
	addl	$14, %eax
	subl	%r9d, %ecx
	movslq	%edx, %rdx
	movslq	%ecx, %rcx
	movzbl	(%rsi,%rdx), %edx
	movzbl	(%rsi,%rcx), %ecx
	addl	%ecx, %edx
	movzbl	(%rsi,%r8), %ecx
	sarl	%edx
	subl	%edx, %ecx
	movb	%cl, (%rdi,%r8)
	cmpl	%eax, %ebp
	jle	.L265
	movl	%eax, %edx
	movslq	%eax, %rcx
	subl	%ebx, %eax
	subl	%r9d, %edx
	cltq
	movslq	%edx, %rdx
	movzbl	(%rsi,%rax), %eax
	movzbl	(%rsi,%rdx), %edx
	addl	%edx, %eax
	movzbl	(%rsi,%rcx), %edx
	sarl	%eax
	subl	%eax, %edx
	movb	%dl, (%rdi,%rcx)
	jmp	.L265
	.p2align 4
	.p2align 3
.L151:
	imull	%r9d, %ebp
	cmpl	%ebp, %r9d
	jge	.L265
	movslq	%r9d, %rax
	movl	%ebp, %r10d
	leaq	1(%rsi), %r11
	leaq	(%rdi,%rax), %r8
	leaq	1(%rsi,%rax), %rcx
	subl	%r9d, %r10d
	movq	%r8, %rdx
	subq	%rcx, %rdx
	cmpq	$14, %rdx
	movq	%r8, %rdx
	seta	%cl
	subq	%r11, %rdx
	cmpq	$14, %rdx
	seta	%dl
	testb	%dl, %cl
	je	.L213
	leal	-1(%r10), %edx
	cmpl	$14, %edx
	jbe	.L213
	vmovdqa	.LC11(%rip), %xmm2
	movl	%r10d, %ecx
	leaq	(%rsi,%rax), %rdx
	xorl	%eax, %eax
	shrl	$4, %ecx
	salq	$4, %rcx
	.p2align 4
	.p2align 3
.L192:
	vmovdqu	(%rsi,%rax), %xmm3
	vpsrlw	$1, %xmm3, %xmm0
	vmovdqu	(%rdx,%rax), %xmm3
	vpand	%xmm0, %xmm2, %xmm0
	vpsubb	%xmm0, %xmm3, %xmm0
	vmovdqu	%xmm0, (%r8,%rax)
	addq	$16, %rax
	cmpq	%rcx, %rax
	jne	.L192
	movl	%r10d, %edx
	andl	$-16, %edx
	leal	(%r9,%rdx), %eax
	cmpl	%edx, %r10d
	je	.L265
	movslq	%edx, %rdx
	movslq	%eax, %r8
	movzbl	(%rsi,%rdx), %ecx
	movzbl	(%rsi,%r8), %edx
	shrb	%cl
	subl	%ecx, %edx
	movb	%dl, (%rdi,%r8)
	leal	1(%rax), %edx
	cmpl	%edx, %ebp
	jle	.L265
	movslq	%edx, %r8
	subl	%r9d, %edx
	movslq	%edx, %rdx
	movzbl	(%rsi,%rdx), %ecx
	movzbl	(%rsi,%r8), %edx
	shrb	%cl
	subl	%ecx, %edx
	movb	%dl, (%rdi,%r8)
	leal	2(%rax), %edx
	cmpl	%edx, %ebp
	jle	.L265
	movslq	%edx, %r8
	subl	%r9d, %edx
	movslq	%edx, %rdx
	movzbl	(%rsi,%rdx), %ecx
	movzbl	(%rsi,%r8), %edx
	shrb	%cl
	subl	%ecx, %edx
	movb	%dl, (%rdi,%r8)
	leal	3(%rax), %edx
	cmpl	%edx, %ebp
	jle	.L265
	movslq	%edx, %r8
	subl	%r9d, %edx
	movslq	%edx, %rdx
	movzbl	(%rsi,%rdx), %ecx
	movzbl	(%rsi,%r8), %edx
	shrb	%cl
	subl	%ecx, %edx
	movb	%dl, (%rdi,%r8)
	leal	4(%rax), %edx
	cmpl	%edx, %ebp
	jle	.L265
	movslq	%edx, %r8
	subl	%r9d, %edx
	movslq	%edx, %rdx
	movzbl	(%rsi,%rdx), %ecx
	movzbl	(%rsi,%r8), %edx
	shrb	%cl
	subl	%ecx, %edx
	movb	%dl, (%rdi,%r8)
	leal	5(%rax), %edx
	cmpl	%edx, %ebp
	jle	.L265
	movslq	%edx, %r8
	subl	%r9d, %edx
	movslq	%edx, %rdx
	movzbl	(%rsi,%rdx), %ecx
	movzbl	(%rsi,%r8), %edx
	shrb	%cl
	subl	%ecx, %edx
	movb	%dl, (%rdi,%r8)
	leal	6(%rax), %edx
	cmpl	%edx, %ebp
	jle	.L265
	movslq	%edx, %r8
	subl	%r9d, %edx
	movslq	%edx, %rdx
	movzbl	(%rsi,%rdx), %ecx
	movzbl	(%rsi,%r8), %edx
	shrb	%cl
	subl	%ecx, %edx
	movb	%dl, (%rdi,%r8)
	leal	7(%rax), %edx
	cmpl	%edx, %ebp
	jle	.L265
	movslq	%edx, %r8
	subl	%r9d, %edx
	movslq	%edx, %rdx
	movzbl	(%rsi,%rdx), %ecx
	movzbl	(%rsi,%r8), %edx
	shrb	%cl
	subl	%ecx, %edx
	movb	%dl, (%rdi,%r8)
	leal	8(%rax), %edx
	cmpl	%edx, %ebp
	jle	.L265
	movslq	%edx, %r8
	subl	%r9d, %edx
	movslq	%edx, %rdx
	movzbl	(%rsi,%rdx), %ecx
	movzbl	(%rsi,%r8), %edx
	shrb	%cl
	subl	%ecx, %edx
	movb	%dl, (%rdi,%r8)
	leal	9(%rax), %edx
	cmpl	%edx, %ebp
	jle	.L265
	movslq	%edx, %r8
	subl	%r9d, %edx
	movslq	%edx, %rdx
	movzbl	(%rsi,%rdx), %ecx
	movzbl	(%rsi,%r8), %edx
	shrb	%cl
	subl	%ecx, %edx
	movb	%dl, (%rdi,%r8)
	leal	10(%rax), %edx
	cmpl	%edx, %ebp
	jle	.L265
	movslq	%edx, %r8
	subl	%r9d, %edx
	movslq	%edx, %rdx
	movzbl	(%rsi,%rdx), %ecx
	movzbl	(%rsi,%r8), %edx
	shrb	%cl
	subl	%ecx, %edx
	movb	%dl, (%rdi,%r8)
	leal	11(%rax), %edx
	cmpl	%edx, %ebp
	jle	.L265
	movslq	%edx, %r8
	subl	%r9d, %edx
	movslq	%edx, %rdx
	movzbl	(%rsi,%rdx), %ecx
	movzbl	(%rsi,%r8), %edx
	shrb	%cl
	subl	%ecx, %edx
	movb	%dl, (%rdi,%r8)
	leal	12(%rax), %edx
	cmpl	%edx, %ebp
	jle	.L265
	movslq	%edx, %r8
	subl	%r9d, %edx
	movslq	%edx, %rdx
	movzbl	(%rsi,%rdx), %ecx
	movzbl	(%rsi,%r8), %edx
	shrb	%cl
	subl	%ecx, %edx
	movb	%dl, (%rdi,%r8)
	leal	13(%rax), %edx
	cmpl	%edx, %ebp
	jle	.L265
	movslq	%edx, %r8
	subl	%r9d, %edx
	addl	$14, %eax
	movslq	%edx, %rdx
	movzbl	(%rsi,%rdx), %ecx
	movzbl	(%rsi,%r8), %edx
	shrb	%cl
	subl	%ecx, %edx
	movb	%dl, (%rdi,%r8)
	cmpl	%eax, %ebp
	jle	.L265
	movslq	%eax, %rcx
	subl	%r9d, %eax
	cltq
	movzbl	(%rsi,%rax), %edx
	movzbl	(%rsi,%rcx), %eax
	shrb	%dl
	subl	%edx, %eax
	movb	%al, (%rdi,%rcx)
	jmp	.L265
.L213:
	movq	%rsi, %r8
	subq	%rax, %r8
	.p2align 4
	.p2align 3
.L191:
	movzbl	(%r8,%rax), %ecx
	movzbl	(%rsi,%rax), %edx
	shrb	%cl
	subl	%ecx, %edx
	movb	%dl, (%rdi,%rax)
	incq	%rax
	cmpl	%eax, %ebp
	jg	.L191
	jmp	.L265
.L209:
	movq	%rsi, %r9
	movq	%rsi, %r8
	subq	%rax, %r9
	subq	%rdx, %r8
	.p2align 4
	.p2align 3
.L178:
	movzbl	(%r8,%rax), %ecx
	movzbl	(%r9,%rax), %edx
	addl	%ecx, %edx
	movzbl	(%rsi,%rax), %ecx
	sarl	%edx
	subl	%edx, %ecx
	movb	%cl, (%rdi,%rax)
	incq	%rax
	cmpl	%eax, %ebp
	jg	.L178
	jmp	.L265
.L210:
	movq	%rsi, %rbx
	subq	%rdx, %rax
	movq	%rsi, %r15
	subq	%r10, %rbx
	addq	%rsi, %rax
	subq	%rdx, %r15
	movq	%rbx, -120(%rsp)
	.p2align 4
	.p2align 3
.L183:
	movq	-120(%rsp), %rbx
	movzbl	(%rax,%rdx), %r9d
	movzbl	(%rsi,%rdx), %r10d
	movzbl	(%rbx,%rdx), %r8d
	movzbl	(%r15,%rdx), %ebx
	movl	%r9d, %ebp
	leal	(%rbx,%r8), %ecx
	movl	%r8d, %r12d
	movl	%ebx, %r11d
	subl	%r9d, %ecx
	movl	%ecx, %r13d
	subl	%r8d, %r13d
	movl	%r13d, %r8d
	negl	%r8d
	cmovs	%r13d, %r8d
	movl	%ecx, %r13d
	subl	%r9d, %r13d
	movl	%r13d, %r9d
	negl	%r9d
	cmovs	%r13d, %r9d
	movl	%r8d, %r13d
	cmpl	%r8d, %r9d
	cmovle	%r9d, %r13d
	subl	%ebx, %ecx
	movl	%ecx, %ebx
	negl	%ebx
	cmovs	%ecx, %ebx
	cmpl	%ebx, %r13d
	jge	.L190
	cmpl	%r8d, %r9d
	movl	%ebp, %r11d
	cmovge	%r12d, %r11d
.L190:
	subl	%r11d, %r10d
	movb	%r10b, (%rdi,%rdx)
	incq	%rdx
	cmpl	%edx, %r14d
	jg	.L183
	jmp	.L265
.L170:
	movq	%rsi, %r8
	subq	%r10, %r8
	jmp	.L264
	.p2align 4
	.p2align 3
.L269:
	incq	%rax
.L264:
	movzbl	(%rsi,%rcx), %edx
	subb	(%r8,%rcx), %dl
	movb	%dl, (%rdi,%rcx)
	movq	%rax, %rcx
	cmpl	%eax, %ebp
	jg	.L269
	jmp	.L265
.L206:
	movq	%rsi, %rcx
	movq	%r8, %rax
	subq	%r8, %rcx
	.p2align 4
	.p2align 3
.L162:
	movzbl	(%rsi,%rax), %edx
	subb	(%rcx,%rax), %dl
	movb	%dl, (%rdi,%rax)
	incq	%rax
	cmpl	%eax, %ebp
	jg	.L162
	jmp	.L265
.L214:
	movq	%rcx, %rax
	movq	%rsi, %rcx
	subq	%rax, %rcx
	.p2align 4
	.p2align 3
.L196:
	movzbl	(%rsi,%rax), %edx
	subb	(%rcx,%rax), %dl
	movb	%dl, (%rdi,%rax)
	incq	%rax
	cmpl	%eax, %ebp
	jg	.L196
	jmp	.L265
.L215:
	movl	%r9d, %r8d
	xorl	%edx, %edx
	jmp	.L197
.L208:
	xorl	%eax, %eax
	addq	%rsi, %r11
	jmp	.L171
.L207:
	movl	%r9d, %ecx
	xorl	%edx, %edx
	jmp	.L163
	.cfi_endproc
.LFE822:
	.size	stbiw__encode_png_line, .-stbiw__encode_png_line
	.section	.rodata.str1.1
.LC14:
	.string	"stb_image.h"
	.section	.rodata.str1.8,"aMS",@progbits,1
	.align 8
.LC15:
	.string	"req_comp >= 1 && req_comp <= 4"
	.section	.rodata.str1.1
.LC16:
	.string	"outofmem"
	.text
	.p2align 4
	.type	stbi__convert_format16, @function
stbi__convert_format16:
.LFB637:
	.cfi_startproc
	pushq	%r15
	.cfi_def_cfa_offset 16
	.cfi_offset 15, -16
	pushq	%r14
	.cfi_def_cfa_offset 24
	.cfi_offset 14, -24
	pushq	%r13
	.cfi_def_cfa_offset 32
	.cfi_offset 13, -32
	pushq	%r12
	.cfi_def_cfa_offset 40
	.cfi_offset 12, -40
	pushq	%rbp
	.cfi_def_cfa_offset 48
	.cfi_offset 6, -48
	pushq	%rbx
	.cfi_def_cfa_offset 56
	.cfi_offset 3, -56
	movq	%rdi, %rbp
	subq	$168, %rsp
	.cfi_def_cfa_offset 224
	movl	%r8d, 8(%rsp)
	cmpl	%esi, %edx
	je	.L336
	movl	%edx, %eax
	movl	%edx, %r13d
	movl	%ecx, %r15d
	imull	%ecx, %eax
	movl	%eax, 12(%rsp)
	leal	-1(%rdx), %eax
	cmpl	$3, %eax
	ja	.L536
	movl	12(%rsp), %edi
	movl	%esi, %ebx
	movl	%r8d, %r14d
	imull	%r8d, %edi
	addl	%edi, %edi
	call	malloc@PLT
	movq	%rax, %r12
	testq	%rax, %rax
	je	.L273
	testl	%r14d, %r14d
	jle	.L335
	movl	%ebx, %eax
	leal	-1(%r15), %r14d
	movl	$1, %edi
	vmovdqa	.LC13(%rip), %xmm4
	imull	%r15d, %eax
	vmovdqa	.LC29(%rip), %xmm14
	leal	-10(%r13,%rbx,8), %r13d
	movl	%eax, 16(%rsp)
	leal	-2(%r15), %eax
	cmpl	$-1, %eax
	cmovge	%r15d, %edi
	setl	%al
	cmpl	$7, %r14d
	setbe	%dl
	leal	-1(%rdi), %ecx
	movl	%edi, 20(%rsp)
	orl	%eax, %edx
	movl	%ecx, 136(%rsp)
	movb	%dl, 43(%rsp)
	movl	%ecx, %edx
	andl	$-8, %ecx
	shrl	$3, %edx
	movl	%ecx, 140(%rsp)
	leal	-1(%rdx), %esi
	movq	%rsi, %rdx
	salq	$6, %rdx
	movq	%rdx, 96(%rsp)
	movl	%r14d, %edx
	subl	%ecx, %edx
	movl	%edx, 44(%rsp)
	leaq	0(,%rcx,8), %rdx
	movq	%rdx, 88(%rsp)
	leaq	(%rcx,%rcx), %rdx
	movq	%rdx, 120(%rsp)
	addq	%rcx, %rdx
	addq	%rdx, %rdx
	cmpl	$6, %r14d
	movq	%rdx, 128(%rsp)
	setbe	%dl
	xorl	%r8d, %r8d
	xorl	%r9d, %r9d
	orl	%eax, %edx
	movl	%edi, %eax
	andl	$-8, %edi
	shrl	$3, %eax
	movb	%dl, 42(%rsp)
	movl	%edi, 24(%rsp)
	leal	-1(%rax), %edx
	movq	%rdx, %rax
	salq	$6, %rax
	movq	%rax, 104(%rsp)
	movl	%r14d, %eax
	subl	%edi, %eax
	movl	%eax, 28(%rsp)
	movl	%edi, %eax
	leaq	0(,%rax,8), %rdi
	movq	%rdi, 56(%rsp)
	leaq	0(,%rax,4), %rdi
	movq	%rdi, 32(%rsp)
	leaq	(%rax,%rax), %rdi
	addq	%rdi, %rax
	movq	%rdi, 72(%rsp)
	xorl	%edi, %edi
	addq	%rax, %rax
	movq	%rax, 48(%rsp)
	movq	%rdx, %rax
	incq	%rdx
	salq	$5, %rax
	salq	$4, %rdx
	movq	%rax, 112(%rsp)
	leaq	0(,%rcx,4), %rax
	movq	%rdx, 64(%rsp)
	movq	%rax, 80(%rsp)
	leaq	1(%rsi), %rax
	movq	%rax, 152(%rsp)
	salq	$4, %rax
	movq	%rax, 144(%rsp)
	.p2align 4
	.p2align 3
.L334:
	movl	%r8d, %r10d
	movl	%edi, %r11d
	leaq	(%r10,%r10), %rsi
	leaq	0(%rbp,%r11,2), %rdx
	leaq	(%r12,%rsi), %rax
	cmpl	$25, %r13d
	ja	.L275
	leaq	.L277(%rip), %rbx
	movl	%r13d, %ecx
	movslq	(%rbx,%rcx,4), %rcx
	addq	%rbx, %rcx
	notrack jmp	*%rcx
	.section	.rodata
	.align 4
	.align 4
.L277:
	.long	.L288-.L277
	.long	.L287-.L277
	.long	.L286-.L277
	.long	.L275-.L277
	.long	.L275-.L277
	.long	.L275-.L277
	.long	.L275-.L277
	.long	.L285-.L277
	.long	.L275-.L277
	.long	.L284-.L277
	.long	.L283-.L277
	.long	.L275-.L277
	.long	.L275-.L277
	.long	.L275-.L277
	.long	.L275-.L277
	.long	.L282-.L277
	.long	.L281-.L277
	.long	.L275-.L277
	.long	.L280-.L277
	.long	.L275-.L277
	.long	.L275-.L277
	.long	.L275-.L277
	.long	.L275-.L277
	.long	.L279-.L277
	.long	.L278-.L277
	.long	.L276-.L277
	.text
	.p2align 4
	.p2align 3
.L276:
	testl	%r14d, %r14d
	js	.L289
	cmpb	$0, 43(%rsp)
	jne	.L347
	movq	96(%rsp), %rbx
	movq	%rdx, %rcx
	movq	%rax, %rsi
	leaq	64(%rdx,%rbx), %r10
	.p2align 4
	.p2align 3
.L333:
	vmovdqu	48(%rcx), %xmm5
	vmovdqu	32(%rcx), %xmm2
	addq	$64, %rcx
	addq	$48, %rsi
	vmovdqu	-48(%rcx), %xmm0
	vpshufb	.LC33(%rip), %xmm5, %xmm1
	vmovdqu	-64(%rcx), %xmm5
	vpshufb	.LC32(%rip), %xmm2, %xmm3
	vpor	%xmm1, %xmm3, %xmm3
	vpshufb	.LC37(%rip), %xmm2, %xmm2
	vmovdqu	%xmm3, -16(%rsi)
	vpshufb	.LC34(%rip), %xmm5, %xmm1
	vpshufb	.LC35(%rip), %xmm0, %xmm5
	vpshufb	.LC36(%rip), %xmm0, %xmm0
	vpor	%xmm5, %xmm1, %xmm1
	vpor	%xmm2, %xmm0, %xmm0
	vmovdqu	%xmm1, -48(%rsi)
	vmovdqu	%xmm0, -32(%rsi)
	cmpq	%rcx, %r10
	jne	.L333
	addq	88(%rsp), %rdx
	addq	128(%rsp), %rax
	movl	44(%rsp), %ecx
.L332:
	movzwl	(%rdx), %esi
	movw	%si, (%rax)
	movzwl	2(%rdx), %esi
	movw	%si, 2(%rax)
	movzwl	4(%rdx), %esi
	movw	%si, 4(%rax)
	testl	%ecx, %ecx
	je	.L289
	movzwl	8(%rdx), %esi
	movw	%si, 6(%rax)
	movzwl	10(%rdx), %esi
	movw	%si, 8(%rax)
	movzwl	12(%rdx), %esi
	movw	%si, 10(%rax)
	cmpl	$1, %ecx
	je	.L289
	movzwl	16(%rdx), %esi
	movw	%si, 12(%rax)
	movzwl	18(%rdx), %esi
	movw	%si, 14(%rax)
	movzwl	20(%rdx), %esi
	movw	%si, 16(%rax)
	cmpl	$2, %ecx
	je	.L289
	movzwl	24(%rdx), %esi
	movw	%si, 18(%rax)
	movzwl	26(%rdx), %esi
	movw	%si, 20(%rax)
	movzwl	28(%rdx), %esi
	movw	%si, 22(%rax)
	cmpl	$3, %ecx
	je	.L289
	movzwl	32(%rdx), %esi
	movw	%si, 24(%rax)
	movzwl	34(%rdx), %esi
	movw	%si, 26(%rax)
	movzwl	36(%rdx), %esi
	movw	%si, 28(%rax)
	cmpl	$4, %ecx
	je	.L289
	movzwl	40(%rdx), %esi
	movw	%si, 30(%rax)
	movzwl	42(%rdx), %esi
	movw	%si, 32(%rax)
	movzwl	44(%rdx), %esi
	movw	%si, 34(%rax)
	cmpl	$5, %ecx
	je	.L289
	movzwl	48(%rdx), %esi
	movw	%si, 36(%rax)
	movzwl	50(%rdx), %esi
	movw	%si, 38(%rax)
	movzwl	52(%rdx), %esi
	movw	%si, 40(%rax)
	cmpl	$6, %ecx
	je	.L289
	movzwl	56(%rdx), %ecx
	movw	%cx, 42(%rax)
	movzwl	58(%rdx), %ecx
	movw	%cx, 44(%rax)
	movzwl	60(%rdx), %edx
	movw	%dx, 46(%rax)
	jmp	.L289
	.p2align 4
	.p2align 3
.L278:
	testl	%r14d, %r14d
	js	.L289
	cmpb	$0, 42(%rsp)
	jne	.L346
	movq	104(%rsp), %rbx
	movq	%rdx, %rcx
	movq	%rax, %rsi
	leaq	64(%rdx,%rbx), %r10
	.p2align 4
	.p2align 3
.L329:
	vmovdqu	(%rcx), %xmm5
	vpand	16(%rcx), %xmm4, %xmm0
	addq	$64, %rcx
	addq	$32, %rsi
	vpand	-64(%rcx), %xmm4, %xmm3
	vpand	-32(%rcx), %xmm4, %xmm2
	vpsrld	$16, %xmm5, %xmm1
	vmovdqu	-48(%rcx), %xmm5
	vpackusdw	%xmm0, %xmm3, %xmm3
	vpand	%xmm3, %xmm4, %xmm7
	vpsrld	$16, %xmm3, %xmm3
	vpsrld	$16, %xmm5, %xmm0
	vmovdqu	-32(%rcx), %xmm5
	vpackusdw	%xmm0, %xmm1, %xmm1
	vpand	-16(%rcx), %xmm4, %xmm0
	vpand	%xmm1, %xmm4, %xmm6
	vpsrld	$16, %xmm1, %xmm1
	vpackusdw	%xmm0, %xmm2, %xmm2
	vpsrld	$16, %xmm5, %xmm0
	vmovdqu	-16(%rcx), %xmm5
	vpsrld	$16, %xmm5, %xmm5
	vpackusdw	%xmm5, %xmm0, %xmm0
	vpand	%xmm2, %xmm4, %xmm5
	vpsrld	$16, %xmm2, %xmm2
	vpackusdw	%xmm2, %xmm3, %xmm3
	vpand	%xmm0, %xmm4, %xmm2
	vpackusdw	%xmm5, %xmm7, %xmm7
	vpsrld	$16, %xmm0, %xmm0
	vpmullw	%xmm14, %xmm7, %xmm5
	vpackusdw	%xmm2, %xmm6, %xmm6
	vpackusdw	%xmm0, %xmm1, %xmm1
	vpmullw	.LC30(%rip), %xmm6, %xmm2
	vpmulhuw	.LC30(%rip), %xmm6, %xmm6
	vpmulhuw	%xmm14, %xmm7, %xmm7
	vpunpcklwd	%xmm7, %xmm5, %xmm8
	vpunpckhwd	%xmm7, %xmm5, %xmm5
	vpunpcklwd	%xmm6, %xmm2, %xmm0
	vpunpckhwd	%xmm6, %xmm2, %xmm2
	vpaddd	%xmm8, %xmm0, %xmm0
	vpmullw	.LC31(%rip), %xmm3, %xmm8
	vpaddd	%xmm5, %xmm2, %xmm2
	vpmulhuw	.LC31(%rip), %xmm3, %xmm3
	vpunpcklwd	%xmm3, %xmm8, %xmm9
	vpunpckhwd	%xmm3, %xmm8, %xmm3
	vpaddd	%xmm9, %xmm0, %xmm0
	vpaddd	%xmm3, %xmm2, %xmm2
	vpsrad	$8, %xmm0, %xmm0
	vpsrad	$8, %xmm2, %xmm2
	vpand	%xmm0, %xmm4, %xmm0
	vpand	%xmm2, %xmm4, %xmm2
	vpackusdw	%xmm2, %xmm0, %xmm0
	vpunpcklwd	%xmm1, %xmm0, %xmm2
	vpunpckhwd	%xmm1, %xmm0, %xmm0
	vmovdqu	%xmm2, -32(%rsi)
	vmovdqu	%xmm0, -16(%rsi)
	cmpq	%rcx, %r10
	jne	.L329
	addq	56(%rsp), %rdx
	addq	32(%rsp), %rax
	movl	20(%rsp), %esi
	cmpl	%esi, 24(%rsp)
	je	.L289
	movl	28(%rsp), %esi
.L328:
	movzwl	(%rdx), %ecx
	movzwl	2(%rdx), %r10d
	imull	$77, %ecx, %ecx
	imull	$150, %r10d, %r10d
	addl	%r10d, %ecx
	movzwl	4(%rdx), %r10d
	imull	$29, %r10d, %r10d
	addl	%r10d, %ecx
	sarl	$8, %ecx
	movw	%cx, (%rax)
	movzwl	6(%rdx), %ecx
	movw	%cx, 2(%rax)
	testl	%esi, %esi
	je	.L289
	movzwl	8(%rdx), %ecx
	movzwl	10(%rdx), %r10d
	imull	$77, %ecx, %ecx
	imull	$150, %r10d, %r10d
	addl	%r10d, %ecx
	movzwl	12(%rdx), %r10d
	imull	$29, %r10d, %r10d
	addl	%r10d, %ecx
	sarl	$8, %ecx
	movw	%cx, 4(%rax)
	movzwl	14(%rdx), %ecx
	movw	%cx, 6(%rax)
	cmpl	$1, %esi
	je	.L289
	movzwl	16(%rdx), %ecx
	movzwl	18(%rdx), %r10d
	imull	$77, %ecx, %ecx
	imull	$150, %r10d, %r10d
	addl	%r10d, %ecx
	movzwl	20(%rdx), %r10d
	imull	$29, %r10d, %r10d
	addl	%r10d, %ecx
	sarl	$8, %ecx
	movw	%cx, 8(%rax)
	movzwl	22(%rdx), %ecx
	movw	%cx, 10(%rax)
	cmpl	$2, %esi
	je	.L289
	movzwl	24(%rdx), %ecx
	movzwl	26(%rdx), %r10d
	imull	$77, %ecx, %ecx
	imull	$150, %r10d, %r10d
	addl	%r10d, %ecx
	movzwl	28(%rdx), %r10d
	imull	$29, %r10d, %r10d
	addl	%r10d, %ecx
	sarl	$8, %ecx
	movw	%cx, 12(%rax)
	movzwl	30(%rdx), %ecx
	movw	%cx, 14(%rax)
	cmpl	$3, %esi
	je	.L289
	movzwl	32(%rdx), %ecx
	movzwl	34(%rdx), %r10d
	imull	$77, %ecx, %ecx
	imull	$150, %r10d, %r10d
	addl	%r10d, %ecx
	movzwl	36(%rdx), %r10d
	imull	$29, %r10d, %r10d
	addl	%r10d, %ecx
	sarl	$8, %ecx
	movw	%cx, 16(%rax)
	movzwl	38(%rdx), %ecx
	movw	%cx, 18(%rax)
	cmpl	$4, %esi
	je	.L289
	movzwl	40(%rdx), %ecx
	movzwl	42(%rdx), %r10d
	imull	$77, %ecx, %ecx
	imull	$150, %r10d, %r10d
	addl	%r10d, %ecx
	movzwl	44(%rdx), %r10d
	imull	$29, %r10d, %r10d
	addl	%r10d, %ecx
	sarl	$8, %ecx
	movw	%cx, 20(%rax)
	movzwl	46(%rdx), %ecx
	movw	%cx, 22(%rax)
	cmpl	$5, %esi
	je	.L289
	movzwl	48(%rdx), %ecx
	movzwl	50(%rdx), %esi
	imull	$77, %ecx, %ecx
	imull	$150, %esi, %esi
	addl	%esi, %ecx
	movzwl	52(%rdx), %esi
	imull	$29, %esi, %esi
	addl	%esi, %ecx
	sarl	$8, %ecx
	movw	%cx, 24(%rax)
	movzwl	54(%rdx), %edx
	movw	%dx, 26(%rax)
	jmp	.L289
	.p2align 4
	.p2align 3
.L279:
	testl	%r14d, %r14d
	js	.L289
	cmpb	$0, 43(%rsp)
	jne	.L345
	vmovdqa	.LC13(%rip), %xmm0
	vmovdqa	.LC29(%rip), %xmm5
	movq	%rdx, %rcx
	movq	%rax, %rsi
	vmovdqa	.LC30(%rip), %xmm3
	vmovdqa	.LC31(%rip), %xmm2
	movq	96(%rsp), %rbx
	leaq	64(%rdx,%rbx), %r10
	.p2align 4
	.p2align 3
.L327:
	vpand	16(%rcx), %xmm0, %xmm1
	vpand	(%rcx), %xmm0, %xmm8
	addq	$64, %rcx
	addq	$16, %rsi
	vpand	-16(%rcx), %xmm0, %xmm6
	vmovdqu	-16(%rcx), %xmm15
	vpackusdw	%xmm1, %xmm8, %xmm8
	vpand	-32(%rcx), %xmm0, %xmm1
	vpand	%xmm8, %xmm0, %xmm7
	vpsrld	$16, %xmm8, %xmm8
	vpsrld	$16, %xmm15, %xmm9
	vpackusdw	%xmm6, %xmm1, %xmm1
	vpand	%xmm1, %xmm0, %xmm6
	vpsrld	$16, %xmm1, %xmm1
	vpackusdw	%xmm1, %xmm8, %xmm8
	vpackusdw	%xmm6, %xmm7, %xmm7
	vmovdqu	-64(%rcx), %xmm6
	vpmullw	%xmm5, %xmm7, %xmm10
	vpmulhuw	%xmm5, %xmm7, %xmm11
	vpsrld	$16, %xmm6, %xmm1
	vmovdqu	-48(%rcx), %xmm6
	vpsrld	$16, %xmm6, %xmm6
	vpackusdw	%xmm6, %xmm1, %xmm1
	vmovdqu	-32(%rcx), %xmm6
	vpand	%xmm1, %xmm0, %xmm1
	vpsrld	$16, %xmm6, %xmm6
	vpackusdw	%xmm9, %xmm6, %xmm6
	vpunpcklwd	%xmm11, %xmm10, %xmm9
	vpunpckhwd	%xmm11, %xmm10, %xmm10
	vpand	%xmm6, %xmm0, %xmm6
	vpackusdw	%xmm6, %xmm1, %xmm6
	vpmullw	%xmm3, %xmm6, %xmm7
	vpmulhuw	%xmm3, %xmm6, %xmm1
	vpunpcklwd	%xmm1, %xmm7, %xmm6
	vpunpckhwd	%xmm1, %xmm7, %xmm1
	vpaddd	%xmm9, %xmm6, %xmm6
	vpaddd	%xmm10, %xmm1, %xmm1
	vpmullw	%xmm2, %xmm8, %xmm9
	vpmulhuw	%xmm2, %xmm8, %xmm8
	vpunpcklwd	%xmm8, %xmm9, %xmm12
	vpunpckhwd	%xmm8, %xmm9, %xmm9
	vpaddd	%xmm12, %xmm6, %xmm6
	vpaddd	%xmm9, %xmm1, %xmm1
	vpsrad	$8, %xmm6, %xmm6
	vpsrad	$8, %xmm1, %xmm1
	vpand	%xmm6, %xmm0, %xmm6
	vpand	%xmm1, %xmm0, %xmm1
	vpackusdw	%xmm1, %xmm6, %xmm1
	vmovdqu	%xmm1, -16(%rsi)
	cmpq	%rcx, %r10
	jne	.L327
	addq	88(%rsp), %rdx
	addq	120(%rsp), %rax
	movl	44(%rsp), %esi
.L326:
	movzwl	(%rdx), %ecx
	movzwl	2(%rdx), %r10d
	imull	$77, %ecx, %ecx
	imull	$150, %r10d, %r10d
	addl	%r10d, %ecx
	movzwl	4(%rdx), %r10d
	imull	$29, %r10d, %r10d
	addl	%r10d, %ecx
	sarl	$8, %ecx
	movw	%cx, (%rax)
	testl	%esi, %esi
	je	.L289
	movzwl	8(%rdx), %ecx
	movzwl	10(%rdx), %r10d
	imull	$77, %ecx, %ecx
	imull	$150, %r10d, %r10d
	addl	%r10d, %ecx
	movzwl	12(%rdx), %r10d
	imull	$29, %r10d, %r10d
	addl	%r10d, %ecx
	sarl	$8, %ecx
	movw	%cx, 2(%rax)
	cmpl	$1, %esi
	je	.L289
	movzwl	16(%rdx), %ecx
	movzwl	18(%rdx), %r10d
	imull	$77, %ecx, %ecx
	imull	$150, %r10d, %r10d
	addl	%r10d, %ecx
	movzwl	20(%rdx), %r10d
	imull	$29, %r10d, %r10d
	addl	%r10d, %ecx
	sarl	$8, %ecx
	movw	%cx, 4(%rax)
	cmpl	$2, %esi
	je	.L289
	movzwl	24(%rdx), %ecx
	movzwl	26(%rdx), %r10d
	imull	$77, %ecx, %ecx
	imull	$150, %r10d, %r10d
	addl	%r10d, %ecx
	movzwl	28(%rdx), %r10d
	imull	$29, %r10d, %r10d
	addl	%r10d, %ecx
	sarl	$8, %ecx
	movw	%cx, 6(%rax)
	cmpl	$3, %esi
	je	.L289
	movzwl	32(%rdx), %ecx
	movzwl	34(%rdx), %r10d
	imull	$77, %ecx, %ecx
	imull	$150, %r10d, %r10d
	addl	%r10d, %ecx
	movzwl	36(%rdx), %r10d
	imull	$29, %r10d, %r10d
	addl	%r10d, %ecx
	sarl	$8, %ecx
	movw	%cx, 8(%rax)
	cmpl	$4, %esi
	je	.L289
	movzwl	40(%rdx), %ecx
	movzwl	42(%rdx), %r10d
	imull	$77, %ecx, %ecx
	imull	$150, %r10d, %r10d
	addl	%r10d, %ecx
	movzwl	44(%rdx), %r10d
	imull	$29, %r10d, %r10d
	addl	%r10d, %ecx
	sarl	$8, %ecx
	movw	%cx, 10(%rax)
	cmpl	$5, %esi
	je	.L289
	movzwl	48(%rdx), %ecx
	movzwl	50(%rdx), %r10d
	imull	$77, %ecx, %ecx
	imull	$150, %r10d, %r10d
	addl	%r10d, %ecx
	movzwl	52(%rdx), %r10d
	imull	$29, %r10d, %r10d
	addl	%r10d, %ecx
	sarl	$8, %ecx
	movw	%cx, 12(%rax)
	cmpl	$6, %esi
	je	.L289
	movzwl	56(%rdx), %esi
	movzwl	58(%rdx), %ecx
	movzwl	60(%rdx), %edx
	imull	$77, %esi, %esi
	imull	$150, %ecx, %ecx
	imull	$29, %edx, %edx
	addl	%esi, %ecx
	addl	%edx, %ecx
	sarl	$8, %ecx
	movw	%cx, 14(%rax)
	jmp	.L289
	.p2align 4
	.p2align 3
.L280:
	testl	%r14d, %r14d
	js	.L289
	cmpb	$0, 42(%rsp)
	jne	.L342
	movq	104(%rsp), %r15
	movq	%rdx, %rbx
	movq	%rax, %rcx
	leaq	6(%r12,%rsi), %rsi
	leaq	64(%rax,%r15), %r15
	.p2align 4
	.p2align 3
.L313:
	vmovdqu	(%rbx), %xmm2
	vmovdqu	16(%rbx), %xmm1
	addq	$64, %rcx
	addq	$48, %rbx
	vmovdqu	-16(%rbx), %xmm0
	addq	$64, %rsi
	vpextrw	$0, %xmm2, -64(%rcx)
	vpextrw	$1, %xmm2, -62(%rcx)
	vpextrw	$2, %xmm2, -60(%rcx)
	vpextrw	$3, %xmm2, -56(%rcx)
	vpextrw	$4, %xmm2, -54(%rcx)
	vpextrw	$5, %xmm2, -52(%rcx)
	vpextrw	$6, %xmm2, -48(%rcx)
	vpextrw	$7, %xmm2, -46(%rcx)
	vpextrw	$0, %xmm1, -44(%rcx)
	vpextrw	$1, %xmm1, -40(%rcx)
	vpextrw	$2, %xmm1, -38(%rcx)
	vpextrw	$3, %xmm1, -36(%rcx)
	vpextrw	$4, %xmm1, -32(%rcx)
	vpextrw	$5, %xmm1, -30(%rcx)
	vpextrw	$6, %xmm1, -28(%rcx)
	vpextrw	$7, %xmm1, -24(%rcx)
	vpextrw	$0, %xmm0, -22(%rcx)
	vpextrw	$1, %xmm0, -20(%rcx)
	vpextrw	$2, %xmm0, -16(%rcx)
	vpextrw	$3, %xmm0, -14(%rcx)
	vpextrw	$4, %xmm0, -12(%rcx)
	vpextrw	$5, %xmm0, -8(%rcx)
	vpextrw	$6, %xmm0, -6(%rcx)
	vpextrw	$7, %xmm0, -4(%rcx)
	movw	$-1, -64(%rsi)
	movw	$-1, -56(%rsi)
	movw	$-1, -48(%rsi)
	movw	$-1, -40(%rsi)
	movw	$-1, -32(%rsi)
	movw	$-1, -24(%rsi)
	movw	$-1, -16(%rsi)
	movw	$-1, -8(%rsi)
	cmpq	%rcx, %r15
	jne	.L313
	movl	24(%rsp), %ecx
	movl	20(%rsp), %ebx
	addq	48(%rsp), %rdx
	addq	56(%rsp), %rax
	cmpl	%ebx, %ecx
	je	.L289
	movl	28(%rsp), %esi
.L312:
	subl	%ecx, %ebx
	leal	-1(%rbx), %r15d
	cmpl	$2, %r15d
	jbe	.L316
	leaq	(%rcx,%rcx,2), %r15
	leaq	(%r10,%rcx,4), %rcx
	addq	%r11, %r15
	addq	%rcx, %rcx
	leaq	0(%rbp,%r15,2), %r11
	leaq	6(%r12,%rcx), %r10
	vmovq	(%r11), %xmm2
	vmovq	8(%r11), %xmm1
	vmovq	16(%r11), %xmm0
	vpextrw	$0, %xmm2, (%r12,%rcx)
	vpextrw	$1, %xmm2, 2(%r12,%rcx)
	vpextrw	$2, %xmm2, 4(%r12,%rcx)
	vpextrw	$3, %xmm2, 8(%r12,%rcx)
	vpextrw	$0, %xmm1, 10(%r12,%rcx)
	vpextrw	$1, %xmm1, 12(%r12,%rcx)
	vpextrw	$2, %xmm1, 16(%r12,%rcx)
	vpextrw	$3, %xmm1, 18(%r12,%rcx)
	vpextrw	$0, %xmm0, 20(%r12,%rcx)
	vpextrw	$1, %xmm0, 24(%r12,%rcx)
	vpextrw	$2, %xmm0, 26(%r12,%rcx)
	vpextrw	$3, %xmm0, 28(%r12,%rcx)
	movl	%ebx, %ecx
	movw	$-1, (%r10)
	movw	$-1, 8(%r10)
	andl	$-4, %ecx
	movw	$-1, 16(%r10)
	movw	$-1, 24(%r10)
	movl	%ecx, %r10d
	subl	%ecx, %esi
	leaq	(%r10,%r10,2), %r11
	leaq	(%rax,%r10,8), %rax
	leaq	(%rdx,%r11,2), %rdx
	cmpl	%ecx, %ebx
	je	.L289
.L316:
	movzwl	(%rdx), %ecx
	movw	%cx, (%rax)
	movzwl	2(%rdx), %ecx
	movw	%cx, 2(%rax)
	movzwl	4(%rdx), %ecx
	movw	$-1, 6(%rax)
	movw	%cx, 4(%rax)
	testl	%esi, %esi
	je	.L289
	movzwl	6(%rdx), %ecx
	movw	%cx, 8(%rax)
	movzwl	8(%rdx), %ecx
	movw	%cx, 10(%rax)
	movzwl	10(%rdx), %ecx
	movw	$-1, 14(%rax)
	movw	%cx, 12(%rax)
	cmpl	$1, %esi
	je	.L289
	movzwl	12(%rdx), %ecx
	movw	%cx, 16(%rax)
	movzwl	14(%rdx), %ecx
	movw	%cx, 18(%rax)
	movzwl	16(%rdx), %edx
	movw	$-1, 22(%rax)
	movw	%dx, 20(%rax)
	.p2align 4
	.p2align 3
.L289:
	addl	16(%rsp), %edi
	incl	%r9d
	addl	12(%rsp), %r8d
	cmpl	8(%rsp), %r9d
	jne	.L334
.L335:
	movq	%rbp, %rdi
	call	free@PLT
.L270:
	addq	$168, %rsp
	.cfi_remember_state
	.cfi_def_cfa_offset 56
	movq	%r12, %rax
	popq	%rbx
	.cfi_def_cfa_offset 48
	popq	%rbp
	.cfi_def_cfa_offset 40
	popq	%r12
	.cfi_def_cfa_offset 32
	popq	%r13
	.cfi_def_cfa_offset 24
	popq	%r14
	.cfi_def_cfa_offset 16
	popq	%r15
	.cfi_def_cfa_offset 8
	ret
	.p2align 4
	.p2align 3
.L281:
	.cfi_restore_state
	testl	%r14d, %r14d
	js	.L289
	cmpb	$0, 42(%rsp)
	jne	.L344
	vmovdqa	.LC13(%rip), %xmm0
	vmovdqa	.LC28(%rip), %xmm6
	movq	%rdx, %rsi
	movq	%rax, %rcx
	vmovdqa	.LC29(%rip), %xmm5
	vmovdqa	.LC30(%rip), %xmm3
	vpcmpeqd	%xmm9, %xmm9, %xmm9
	vmovdqa	.LC31(%rip), %xmm2
	movq	112(%rsp), %rbx
	leaq	32(%rax,%rbx), %r10
	.p2align 4
	.p2align 3
.L323:
	vmovdqu	32(%rsi), %xmm15
	vmovdqu	(%rsi), %xmm7
	addq	$32, %rcx
	addq	$48, %rsi
	vmovdqu	-32(%rsi), %xmm1
	vpshufb	%xmm6, %xmm15, %xmm8
	vpshufb	%xmm6, %xmm7, %xmm7
	vpshufb	%xmm6, %xmm1, %xmm1
	vpalignr	$12, %xmm7, %xmm1, %xmm10
	vpalignr	$12, %xmm1, %xmm8, %xmm1
	vpalignr	$12, %xmm8, %xmm7, %xmm7
	vpalignr	$10, %xmm1, %xmm10, %xmm11
	vpalignr	$10, %xmm10, %xmm7, %xmm10
	vpalignr	$10, %xmm7, %xmm1, %xmm7
	vpalignr	$10, %xmm10, %xmm10, %xmm10
	vpmullw	%xmm7, %xmm3, %xmm8
	vpalignr	$6, %xmm11, %xmm11, %xmm11
	vpmullw	%xmm5, %xmm10, %xmm13
	vpmulhuw	%xmm3, %xmm7, %xmm1
	vpmulhuw	%xmm5, %xmm10, %xmm10
	vpunpcklwd	%xmm1, %xmm8, %xmm7
	vpunpckhwd	%xmm1, %xmm8, %xmm1
	vpunpcklwd	%xmm10, %xmm13, %xmm12
	vpunpckhwd	%xmm10, %xmm13, %xmm13
	vpaddd	%xmm12, %xmm7, %xmm7
	vpaddd	%xmm13, %xmm1, %xmm1
	vpmullw	%xmm2, %xmm11, %xmm12
	vpmulhuw	%xmm2, %xmm11, %xmm11
	vpunpcklwd	%xmm11, %xmm12, %xmm15
	vpunpckhwd	%xmm11, %xmm12, %xmm12
	vpaddd	%xmm15, %xmm7, %xmm7
	vpaddd	%xmm12, %xmm1, %xmm1
	vpsrad	$8, %xmm7, %xmm7
	vpsrad	$8, %xmm1, %xmm1
	vpand	%xmm7, %xmm0, %xmm7
	vpand	%xmm1, %xmm0, %xmm1
	vpackusdw	%xmm1, %xmm7, %xmm1
	vpunpcklwd	%xmm9, %xmm1, %xmm7
	vpunpckhwd	%xmm9, %xmm1, %xmm1
	vmovdqu	%xmm7, -32(%rcx)
	vmovdqu	%xmm1, -16(%rcx)
	cmpq	%rcx, %r10
	jne	.L323
	addq	48(%rsp), %rdx
	addq	32(%rsp), %rax
	movl	20(%rsp), %esi
	cmpl	%esi, 24(%rsp)
	je	.L289
	movl	28(%rsp), %esi
.L322:
	movzwl	(%rdx), %ecx
	movzwl	2(%rdx), %r10d
	imull	$77, %ecx, %ecx
	imull	$150, %r10d, %r10d
	addl	%r10d, %ecx
	movzwl	4(%rdx), %r10d
	movw	$-1, 2(%rax)
	imull	$29, %r10d, %r10d
	addl	%r10d, %ecx
	sarl	$8, %ecx
	movw	%cx, (%rax)
	testl	%esi, %esi
	je	.L289
	movzwl	6(%rdx), %ecx
	movzwl	8(%rdx), %r10d
	imull	$77, %ecx, %ecx
	imull	$150, %r10d, %r10d
	addl	%r10d, %ecx
	movzwl	10(%rdx), %r10d
	movw	$-1, 6(%rax)
	imull	$29, %r10d, %r10d
	addl	%r10d, %ecx
	sarl	$8, %ecx
	movw	%cx, 4(%rax)
	cmpl	$1, %esi
	je	.L289
	movzwl	12(%rdx), %ecx
	movzwl	14(%rdx), %r10d
	imull	$77, %ecx, %ecx
	imull	$150, %r10d, %r10d
	addl	%r10d, %ecx
	movzwl	16(%rdx), %r10d
	movw	$-1, 10(%rax)
	imull	$29, %r10d, %r10d
	addl	%r10d, %ecx
	sarl	$8, %ecx
	movw	%cx, 8(%rax)
	cmpl	$2, %esi
	je	.L289
	movzwl	18(%rdx), %ecx
	movzwl	20(%rdx), %r10d
	imull	$77, %ecx, %ecx
	imull	$150, %r10d, %r10d
	addl	%r10d, %ecx
	movzwl	22(%rdx), %r10d
	movw	$-1, 14(%rax)
	imull	$29, %r10d, %r10d
	addl	%r10d, %ecx
	sarl	$8, %ecx
	movw	%cx, 12(%rax)
	cmpl	$3, %esi
	je	.L289
	movzwl	24(%rdx), %ecx
	movzwl	26(%rdx), %r10d
	imull	$77, %ecx, %ecx
	imull	$150, %r10d, %r10d
	addl	%r10d, %ecx
	movzwl	28(%rdx), %r10d
	movw	$-1, 18(%rax)
	imull	$29, %r10d, %r10d
	addl	%r10d, %ecx
	sarl	$8, %ecx
	movw	%cx, 16(%rax)
	cmpl	$4, %esi
	je	.L289
	movzwl	30(%rdx), %ecx
	movzwl	32(%rdx), %r10d
	imull	$77, %ecx, %ecx
	imull	$150, %r10d, %r10d
	addl	%r10d, %ecx
	movzwl	34(%rdx), %r10d
	movw	$-1, 22(%rax)
	imull	$29, %r10d, %r10d
	addl	%r10d, %ecx
	sarl	$8, %ecx
	movw	%cx, 20(%rax)
	cmpl	$5, %esi
	je	.L289
	movzwl	36(%rdx), %esi
	movzwl	38(%rdx), %ecx
	movzwl	40(%rdx), %edx
	movw	$-1, 26(%rax)
	imull	$77, %esi, %esi
	imull	$150, %ecx, %ecx
	imull	$29, %edx, %edx
	addl	%esi, %ecx
	addl	%edx, %ecx
	sarl	$8, %ecx
	movw	%cx, 24(%rax)
	jmp	.L289
	.p2align 4
	.p2align 3
.L282:
	testl	%r14d, %r14d
	js	.L289
	cmpb	$0, 42(%rsp)
	jne	.L343
	vmovdqa	.LC13(%rip), %xmm0
	vmovdqa	.LC28(%rip), %xmm6
	movq	%rdx, %rcx
	movq	%rax, %rsi
	vmovdqa	.LC29(%rip), %xmm5
	vmovdqa	.LC30(%rip), %xmm3
	vmovdqa	.LC31(%rip), %xmm2
	movq	64(%rsp), %rbx
	leaq	(%rax,%rbx), %r10
	.p2align 4
	.p2align 3
.L319:
	vmovdqu	(%rcx), %xmm7
	addq	$16, %rsi
	addq	$48, %rcx
	vpshufb	%xmm6, %xmm7, %xmm8
	vmovdqu	-32(%rcx), %xmm7
	vpshufb	%xmm6, %xmm7, %xmm1
	vmovdqu	-16(%rcx), %xmm7
	vpalignr	$12, %xmm8, %xmm1, %xmm9
	vpshufb	%xmm6, %xmm7, %xmm7
	vpalignr	$12, %xmm1, %xmm7, %xmm1
	vpalignr	$12, %xmm7, %xmm8, %xmm8
	vpalignr	$10, %xmm1, %xmm9, %xmm13
	vpalignr	$10, %xmm8, %xmm1, %xmm7
	vpalignr	$10, %xmm9, %xmm8, %xmm9
	vpmulhuw	%xmm3, %xmm7, %xmm1
	vpalignr	$10, %xmm9, %xmm9, %xmm9
	vpalignr	$6, %xmm13, %xmm13, %xmm13
	vpmullw	%xmm5, %xmm9, %xmm12
	vpmullw	%xmm7, %xmm3, %xmm8
	vpmulhuw	%xmm5, %xmm9, %xmm9
	vpunpcklwd	%xmm1, %xmm8, %xmm10
	vpunpckhwd	%xmm1, %xmm8, %xmm1
	vpmulhuw	%xmm2, %xmm13, %xmm7
	vpunpcklwd	%xmm9, %xmm12, %xmm11
	vpunpckhwd	%xmm9, %xmm12, %xmm12
	vpaddd	%xmm11, %xmm10, %xmm10
	vpaddd	%xmm12, %xmm1, %xmm1
	vpmullw	%xmm2, %xmm13, %xmm11
	vpunpcklwd	%xmm7, %xmm11, %xmm13
	vpunpckhwd	%xmm7, %xmm11, %xmm11
	vpaddd	%xmm13, %xmm10, %xmm10
	vpaddd	%xmm11, %xmm1, %xmm1
	vpsrad	$8, %xmm10, %xmm10
	vpsrad	$8, %xmm1, %xmm1
	vpand	%xmm10, %xmm0, %xmm7
	vpand	%xmm1, %xmm0, %xmm1
	vpackusdw	%xmm1, %xmm7, %xmm1
	vmovdqu	%xmm1, -16(%rsi)
	cmpq	%rsi, %r10
	jne	.L319
	addq	48(%rsp), %rdx
	addq	72(%rsp), %rax
	movl	20(%rsp), %esi
	cmpl	%esi, 24(%rsp)
	je	.L289
	movl	28(%rsp), %esi
.L318:
	movzwl	2(%rdx), %ecx
	movzwl	(%rdx), %r10d
	imull	$150, %ecx, %ecx
	imull	$77, %r10d, %r10d
	addl	%r10d, %ecx
	movzwl	4(%rdx), %r10d
	imull	$29, %r10d, %r10d
	addl	%r10d, %ecx
	sarl	$8, %ecx
	movw	%cx, (%rax)
	testl	%esi, %esi
	je	.L289
	movzwl	8(%rdx), %ecx
	movzwl	6(%rdx), %r10d
	imull	$150, %ecx, %ecx
	imull	$77, %r10d, %r10d
	addl	%r10d, %ecx
	movzwl	10(%rdx), %r10d
	imull	$29, %r10d, %r10d
	addl	%r10d, %ecx
	sarl	$8, %ecx
	movw	%cx, 2(%rax)
	cmpl	$1, %esi
	je	.L289
	movzwl	14(%rdx), %ecx
	movzwl	12(%rdx), %r10d
	imull	$150, %ecx, %ecx
	imull	$77, %r10d, %r10d
	addl	%r10d, %ecx
	movzwl	16(%rdx), %r10d
	imull	$29, %r10d, %r10d
	addl	%r10d, %ecx
	sarl	$8, %ecx
	movw	%cx, 4(%rax)
	cmpl	$2, %esi
	je	.L289
	movzwl	20(%rdx), %ecx
	movzwl	18(%rdx), %r10d
	imull	$150, %ecx, %ecx
	imull	$77, %r10d, %r10d
	addl	%r10d, %ecx
	movzwl	22(%rdx), %r10d
	imull	$29, %r10d, %r10d
	addl	%r10d, %ecx
	sarl	$8, %ecx
	movw	%cx, 6(%rax)
	cmpl	$3, %esi
	je	.L289
	movzwl	24(%rdx), %ecx
	movzwl	26(%rdx), %r10d
	imull	$77, %ecx, %ecx
	imull	$150, %r10d, %r10d
	addl	%r10d, %ecx
	movzwl	28(%rdx), %r10d
	imull	$29, %r10d, %r10d
	addl	%r10d, %ecx
	sarl	$8, %ecx
	movw	%cx, 8(%rax)
	cmpl	$4, %esi
	je	.L289
	movzwl	30(%rdx), %ecx
	movzwl	32(%rdx), %r10d
	imull	$77, %ecx, %ecx
	imull	$150, %r10d, %r10d
	addl	%r10d, %ecx
	movzwl	34(%rdx), %r10d
	imull	$29, %r10d, %r10d
	addl	%r10d, %ecx
	sarl	$8, %ecx
	movw	%cx, 10(%rax)
	cmpl	$5, %esi
	je	.L289
	movzwl	36(%rdx), %esi
	movzwl	38(%rdx), %ecx
	movzwl	40(%rdx), %edx
	imull	$77, %esi, %esi
	imull	$150, %ecx, %ecx
	imull	$29, %edx, %edx
	addl	%esi, %ecx
	addl	%edx, %ecx
	sarl	$8, %ecx
	movw	%cx, 12(%rax)
	jmp	.L289
	.p2align 4
	.p2align 3
.L283:
	testl	%r14d, %r14d
	js	.L289
	cmpb	$0, 42(%rsp)
	jne	.L341
	vmovdqa	.LC13(%rip), %xmm0
	movq	112(%rsp), %rbx
	movq	%rdx, %rsi
	movq	%rax, %rcx
	leaq	32(%rdx,%rbx), %rbx
	.p2align 4
	.p2align 3
.L307:
	vpand	16(%rsi), %xmm0, %xmm2
	vmovdqu	(%rsi), %xmm5
	addq	$32, %rsi
	addq	$64, %rcx
	vpand	-32(%rsi), %xmm0, %xmm1
	vpackusdw	%xmm2, %xmm1, %xmm1
	vpsrld	$16, %xmm5, %xmm2
	vmovdqu	-16(%rsi), %xmm5
	vpsrld	$16, %xmm5, %xmm3
	vpackusdw	%xmm3, %xmm2, %xmm2
	vpunpcklwd	%xmm1, %xmm1, %xmm5
	vpunpckhwd	%xmm1, %xmm1, %xmm3
	vpunpcklwd	%xmm2, %xmm1, %xmm6
	vpunpckhwd	%xmm2, %xmm1, %xmm1
	vpunpcklwd	%xmm6, %xmm5, %xmm2
	vpunpckhwd	%xmm6, %xmm5, %xmm5
	vmovdqu	%xmm2, -64(%rcx)
	vpunpcklwd	%xmm1, %xmm3, %xmm2
	vpunpckhwd	%xmm1, %xmm3, %xmm3
	vmovdqu	%xmm5, -48(%rcx)
	vmovdqu	%xmm2, -32(%rcx)
	vmovdqu	%xmm3, -16(%rcx)
	cmpq	%rsi, %rbx
	jne	.L307
	movl	24(%rsp), %esi
	movl	20(%rsp), %ebx
	addq	32(%rsp), %rdx
	addq	56(%rsp), %rax
	cmpl	%ebx, %esi
	je	.L289
.L306:
	subl	%esi, %ebx
	cmpl	$1, %ebx
	je	.L310
	leaq	(%r11,%rsi,2), %r11
	leaq	(%r10,%rsi,4), %rsi
	leal	-1(%rbx), %ecx
	leaq	0(%rbp,%r11,2), %r11
	leaq	(%r12,%rsi,2), %rsi
	vmovq	(%r11), %xmm0
	vpshuflw	$64, %xmm0, %xmm0
	vmovq	%xmm0, (%rsi)
	cmpl	$2, %ebx
	je	.L311
	vmovq	4(%r11), %xmm0
	vpshuflw	$64, %xmm0, %xmm0
	vmovq	%xmm0, 8(%rsi)
	cmpl	$2, %ecx
	je	.L311
	vmovq	8(%r11), %xmm0
	vpshuflw	$64, %xmm0, %xmm0
	vmovq	%xmm0, 16(%rsi)
	cmpl	$3, %ecx
	je	.L311
	vmovq	12(%r11), %xmm0
	vpshuflw	$64, %xmm0, %xmm0
	vmovq	%xmm0, 24(%rsi)
	cmpl	$4, %ecx
	je	.L311
	vmovq	16(%r11), %xmm0
	vpshuflw	$64, %xmm0, %xmm0
	vmovq	%xmm0, 32(%rsi)
	cmpl	$5, %ecx
	je	.L311
	vmovq	20(%r11), %xmm0
	vpshuflw	$64, %xmm0, %xmm0
	vmovq	%xmm0, 40(%rsi)
.L311:
	leaq	(%rdx,%rcx,4), %rdx
	leaq	(%rax,%rcx,8), %rax
.L310:
	movzwl	(%rdx), %ecx
	movw	%cx, 4(%rax)
	movw	%cx, 2(%rax)
	movw	%cx, (%rax)
	movzwl	2(%rdx), %edx
	movw	%dx, 6(%rax)
	jmp	.L289
	.p2align 4
	.p2align 3
.L284:
	testl	%r14d, %r14d
	js	.L289
	cmpb	$0, 43(%rsp)
	jne	.L340
	vmovdqa	.LC25(%rip), %xmm5
	vmovdqa	.LC26(%rip), %xmm3
	movq	%rdx, %rsi
	movq	%rax, %rcx
	vmovdqa	.LC27(%rip), %xmm2
	movq	152(%rsp), %r10
	salq	$5, %r10
	addq	%rdx, %r10
	.p2align 4
	.p2align 3
.L305:
	vmovdqu	(%rsi), %xmm6
	vmovdqu	16(%rsi), %xmm1
	addq	$32, %rsi
	addq	$48, %rcx
	vpshufb	%xmm5, %xmm6, %xmm0
	vmovdqu	%xmm0, -48(%rcx)
	vpalignr	$8, -32(%rsi), %xmm1, %xmm0
	vpshufb	%xmm2, %xmm1, %xmm1
	vpshufb	%xmm3, %xmm0, %xmm0
	vmovdqu	%xmm0, -32(%rcx)
	vmovdqu	%xmm1, -16(%rcx)
	cmpq	%rsi, %r10
	jne	.L305
	addq	80(%rsp), %rdx
	addq	128(%rsp), %rax
	movl	44(%rsp), %ecx
.L304:
	movzwl	(%rdx), %esi
	movw	%si, 4(%rax)
	movw	%si, 2(%rax)
	movw	%si, (%rax)
	testl	%ecx, %ecx
	je	.L289
	movzwl	4(%rdx), %esi
	movw	%si, 10(%rax)
	movw	%si, 8(%rax)
	movw	%si, 6(%rax)
	cmpl	$1, %ecx
	je	.L289
	movzwl	8(%rdx), %esi
	movw	%si, 16(%rax)
	movw	%si, 14(%rax)
	movw	%si, 12(%rax)
	cmpl	$2, %ecx
	je	.L289
	movzwl	12(%rdx), %esi
	movw	%si, 22(%rax)
	movw	%si, 20(%rax)
	movw	%si, 18(%rax)
	cmpl	$3, %ecx
	je	.L289
	movzwl	16(%rdx), %esi
	movw	%si, 28(%rax)
	movw	%si, 26(%rax)
	movw	%si, 24(%rax)
	cmpl	$4, %ecx
	je	.L289
	movzwl	20(%rdx), %esi
	movw	%si, 34(%rax)
	movw	%si, 32(%rax)
	movw	%si, 30(%rax)
	cmpl	$5, %ecx
	je	.L289
	movzwl	24(%rdx), %esi
	movw	%si, 40(%rax)
	movw	%si, 38(%rax)
	movw	%si, 36(%rax)
	cmpl	$6, %ecx
	je	.L289
	movzwl	28(%rdx), %edx
	movw	%dx, 46(%rax)
	movw	%dx, 44(%rax)
	movw	%dx, 42(%rax)
	jmp	.L289
	.p2align 4
	.p2align 3
.L285:
	testl	%r14d, %r14d
	js	.L289
	cmpb	$0, 43(%rsp)
	jne	.L339
	vmovdqa	.LC13(%rip), %xmm0
	movq	144(%rsp), %rsi
	xorl	%ecx, %ecx
	.p2align 4
	.p2align 3
.L302:
	vpand	(%rdx,%rcx,2), %xmm0, %xmm1
	vpand	16(%rdx,%rcx,2), %xmm0, %xmm2
	vpackusdw	%xmm2, %xmm1, %xmm1
	vmovdqu	%xmm1, (%rax,%rcx)
	addq	$16, %rcx
	cmpq	%rcx, %rsi
	jne	.L302
	addq	80(%rsp), %rdx
	addq	120(%rsp), %rax
	movl	140(%rsp), %esi
	movl	44(%rsp), %ebx
.L301:
	movl	136(%rsp), %ecx
	subl	%esi, %ecx
	cmpl	$3, %ecx
	jbe	.L303
	leaq	(%r11,%rsi,2), %r11
	andl	$-4, %ecx
	addq	%r10, %rsi
	leaq	0(%rbp,%r11,2), %r11
	subl	%ecx, %ebx
	leaq	(%rdx,%rcx,4), %rdx
	leaq	(%rax,%rcx,2), %rax
	vmovq	(%r11), %xmm0
	vmovq	8(%r11), %xmm1
	vpunpcklwd	%xmm1, %xmm0, %xmm2
	vpunpcklwd	%xmm1, %xmm0, %xmm0
	vpshufd	$14, %xmm2, %xmm2
	vpunpcklwd	%xmm2, %xmm0, %xmm0
	vmovq	%xmm0, (%r12,%rsi,2)
.L303:
	movzwl	(%rdx), %ecx
	movw	%cx, (%rax)
	testl	%ebx, %ebx
	je	.L289
	movzwl	4(%rdx), %ecx
	movw	%cx, 2(%rax)
	cmpl	$1, %ebx
	je	.L289
	movzwl	8(%rdx), %ecx
	movw	%cx, 4(%rax)
	cmpl	$2, %ebx
	je	.L289
	movzwl	12(%rdx), %edx
	movw	%dx, 6(%rax)
	jmp	.L289
	.p2align 4
	.p2align 3
.L286:
	testl	%r14d, %r14d
	js	.L289
	movl	%r14d, %esi
	.p2align 4
	.p2align 3
.L300:
	movzwl	(%rdx), %ecx
	decl	%esi
	movw	$-1, 6(%rax)
	addq	$2, %rdx
	addq	$8, %rax
	movw	%cx, -4(%rax)
	movw	%cx, -6(%rax)
	movw	%cx, -8(%rax)
	cmpl	$-1, %esi
	jne	.L300
	jmp	.L289
	.p2align 4
	.p2align 3
.L288:
	testl	%r14d, %r14d
	js	.L289
	cmpb	$0, 42(%rsp)
	jne	.L337
	movq	64(%rsp), %rsi
	xorl	%ecx, %ecx
	vpcmpeqd	%xmm1, %xmm1, %xmm1
	.p2align 4
	.p2align 3
.L291:
	vmovdqu	(%rdx,%rcx), %xmm0
	vpunpcklwd	%xmm1, %xmm0, %xmm2
	vpunpckhwd	%xmm1, %xmm0, %xmm0
	vmovdqu	%xmm2, (%rax,%rcx,2)
	vmovdqu	%xmm0, 16(%rax,%rcx,2)
	addq	$16, %rcx
	cmpq	%rcx, %rsi
	jne	.L291
	movl	24(%rsp), %ecx
	movl	20(%rsp), %ebx
	addq	72(%rsp), %rdx
	addq	32(%rsp), %rax
	cmpl	%ebx, %ecx
	je	.L289
	movl	28(%rsp), %esi
.L290:
	subl	%ecx, %ebx
	leal	-1(%rbx), %r15d
	cmpl	$2, %r15d
	jbe	.L294
	leaq	(%r10,%rcx,2), %r10
	addq	%r11, %rcx
	vmovq	.LC17(%rip), %xmm1
	vmovq	0(%rbp,%rcx,2), %xmm0
	movl	%ebx, %ecx
	vpunpcklwd	%xmm1, %xmm0, %xmm2
	vpunpcklwd	%xmm1, %xmm0, %xmm0
	leaq	(%r12,%r10,2), %r10
	andl	$-4, %ecx
	vpshufd	$14, %xmm0, %xmm0
	vmovq	%xmm2, (%r10)
	vmovq	%xmm0, 8(%r10)
	movl	%ecx, %r10d
	subl	%ecx, %esi
	leaq	(%rdx,%r10,2), %rdx
	leaq	(%rax,%r10,4), %rax
	cmpl	%ebx, %ecx
	je	.L289
.L294:
	movzwl	(%rdx), %ecx
	movw	$-1, 2(%rax)
	movw	%cx, (%rax)
	testl	%esi, %esi
	je	.L289
	movzwl	2(%rdx), %ecx
	movw	$-1, 6(%rax)
	movw	%cx, 4(%rax)
	cmpl	$1, %esi
	je	.L289
	movzwl	4(%rdx), %edx
	movw	$-1, 10(%rax)
	movw	%dx, 8(%rax)
	jmp	.L289
	.p2align 4
	.p2align 3
.L287:
	testl	%r14d, %r14d
	js	.L289
	cmpb	$0, 42(%rsp)
	jne	.L338
	vmovdqa	.LC18(%rip), %xmm10
	vmovdqa	.LC19(%rip), %xmm9
	movq	%rdx, %rsi
	movq	%rax, %rcx
	vmovdqa	.LC20(%rip), %xmm8
	vmovdqa	.LC21(%rip), %xmm7
	vmovdqa	.LC22(%rip), %xmm6
	vmovdqa	.LC23(%rip), %xmm5
	vmovdqa	.LC24(%rip), %xmm3
	movq	64(%rsp), %rbx
	leaq	(%rdx,%rbx), %r10
	.p2align 4
	.p2align 3
.L297:
	vmovdqu	(%rsi), %xmm0
	addq	$16, %rsi
	addq	$48, %rcx
	vpshufb	%xmm9, %xmm0, %xmm2
	vpshufb	%xmm10, %xmm0, %xmm1
	vpblendw	$36, %xmm2, %xmm1, %xmm1
	vpshufb	%xmm8, %xmm0, %xmm2
	vmovdqu	%xmm1, -48(%rcx)
	vpshufb	%xmm6, %xmm2, %xmm2
	vpshufb	%xmm7, %xmm0, %xmm1
	vpor	%xmm2, %xmm1, %xmm1
	vmovdqu	%xmm1, -32(%rcx)
	vpshufb	%xmm5, %xmm0, %xmm1
	vpshufb	%xmm3, %xmm0, %xmm0
	vpblendw	$146, %xmm0, %xmm1, %xmm0
	vmovdqu	%xmm0, -16(%rcx)
	cmpq	%rsi, %r10
	jne	.L297
	addq	72(%rsp), %rdx
	addq	48(%rsp), %rax
	movl	20(%rsp), %esi
	cmpl	%esi, 24(%rsp)
	je	.L289
	movl	28(%rsp), %ecx
.L296:
	movzwl	(%rdx), %esi
	movw	%si, 4(%rax)
	movw	%si, 2(%rax)
	movw	%si, (%rax)
	testl	%ecx, %ecx
	je	.L289
	movzwl	2(%rdx), %esi
	movw	%si, 10(%rax)
	movw	%si, 8(%rax)
	movw	%si, 6(%rax)
	cmpl	$1, %ecx
	je	.L289
	movzwl	4(%rdx), %esi
	movw	%si, 16(%rax)
	movw	%si, 14(%rax)
	movw	%si, 12(%rax)
	cmpl	$2, %ecx
	je	.L289
	movzwl	6(%rdx), %esi
	movw	%si, 22(%rax)
	movw	%si, 20(%rax)
	movw	%si, 18(%rax)
	cmpl	$3, %ecx
	je	.L289
	movzwl	8(%rdx), %esi
	movw	%si, 28(%rax)
	movw	%si, 26(%rax)
	movw	%si, 24(%rax)
	cmpl	$4, %ecx
	je	.L289
	movzwl	10(%rdx), %esi
	movw	%si, 34(%rax)
	movw	%si, 32(%rax)
	movw	%si, 30(%rax)
	cmpl	$5, %ecx
	je	.L289
	movzwl	12(%rdx), %edx
	movw	%dx, 40(%rax)
	movw	%dx, 38(%rax)
	movw	%dx, 36(%rax)
	jmp	.L289
	.p2align 4
	.p2align 3
.L336:
	movq	%rdi, %r12
	jmp	.L270
.L342:
	movl	20(%rsp), %ebx
	movl	%r14d, %esi
	xorl	%ecx, %ecx
	jmp	.L312
.L344:
	movl	%r14d, %esi
	jmp	.L322
.L345:
	movl	%r14d, %esi
	jmp	.L326
.L339:
	movl	%r14d, %ebx
	xorl	%esi, %esi
	jmp	.L301
.L337:
	movl	20(%rsp), %ebx
	movl	%r14d, %esi
	xorl	%ecx, %ecx
	jmp	.L290
.L338:
	movl	%r14d, %ecx
	jmp	.L296
.L346:
	movl	%r14d, %esi
	jmp	.L328
.L347:
	movl	%r14d, %ecx
	jmp	.L332
.L340:
	movl	%r14d, %ecx
	jmp	.L304
.L343:
	movl	%r14d, %esi
	jmp	.L318
.L341:
	movl	20(%rsp), %ebx
	xorl	%esi, %esi
	jmp	.L306
	.p2align 4
	.p2align 3
.L275:
	leaq	__PRETTY_FUNCTION__.42(%rip), %rcx
	movl	$1827, %edx
	leaq	.LC14(%rip), %rsi
	leaq	.LC9(%rip), %rdi
	call	__assert_fail@PLT
.L273:
	movq	%rbp, %rdi
	call	free@PLT
	leaq	.LC16(%rip), %rax
	movq	%rax, %fs:stbi__g_failure_reason@tpoff
	jmp	.L270
.L536:
	leaq	__PRETTY_FUNCTION__.42(%rip), %rcx
	movl	$1798, %edx
	leaq	.LC14(%rip), %rsi
	leaq	.LC15(%rip), %rdi
	call	__assert_fail@PLT
	.cfi_endproc
.LFE637:
	.size	stbi__convert_format16, .-stbi__convert_format16
	.p2align 4
	.type	stbi__resample_row_hv_2_simd, @function
stbi__resample_row_hv_2_simd:
.LFB668:
	.cfi_startproc
	endbr64
	movzbl	(%rsi), %eax
	movl	%ecx, %r10d
	movq	%rdi, %r8
	movq	%rdx, %rdi
	leal	(%rax,%rax,2), %ecx
	movzbl	(%rdx), %eax
	addl	%eax, %ecx
	cmpl	$1, %r10d
	je	.L547
	leal	-1(%r10), %r9d
	andl	$-8, %r9d
	jle	.L544
	vmovdqa	.LC38(%rip), %xmm4
	xorl	%eax, %eax
	.p2align 4
	.p2align 3
.L541:
	vmovq	(%rdi,%rax), %xmm0
	vmovq	(%rsi,%rax), %xmm2
	movzbl	8(%rsi,%rax), %edx
	leal	(%rdx,%rdx,2), %edx
	vpmovzxbw	%xmm2, %xmm2
	vpmovzxbw	%xmm0, %xmm0
	vpsllw	$2, %xmm2, %xmm5
	vpaddw	%xmm0, %xmm5, %xmm5
	vpsubw	%xmm2, %xmm5, %xmm3
	vpsubw	%xmm5, %xmm2, %xmm2
	vpslldq	$2, %xmm3, %xmm0
	vpinsrw	$0, %ecx, %xmm0, %xmm0
	movzbl	8(%rdi,%rax), %ecx
	vpsrldq	$2, %xmm3, %xmm1
	vpsllw	$2, %xmm3, %xmm3
	vpaddw	%xmm4, %xmm3, %xmm3
	vpaddw	%xmm3, %xmm0, %xmm0
	vpaddw	%xmm2, %xmm0, %xmm0
	addl	%ecx, %edx
	vpinsrw	$7, %edx, %xmm1, %xmm1
	vpaddw	%xmm3, %xmm1, %xmm1
	vpaddw	%xmm2, %xmm1, %xmm1
	vpunpcklwd	%xmm1, %xmm0, %xmm2
	vpunpckhwd	%xmm1, %xmm0, %xmm0
	vpsrlw	$4, %xmm0, %xmm0
	vpsrlw	$4, %xmm2, %xmm1
	vpackuswb	%xmm0, %xmm1, %xmm0
	vmovdqu	%xmm0, (%r8,%rax,2)
	movzbl	7(%rsi,%rax), %edx
	leal	(%rdx,%rdx,2), %ecx
	movzbl	7(%rdi,%rax), %edx
	addq	$8, %rax
	addl	%edx, %ecx
	cmpl	%eax, %r9d
	jg	.L541
	decl	%r9d
	shrl	$3, %r9d
	incl	%r9d
	leal	0(,%r9,8), %edx
	sall	$4, %r9d
	movslq	%edx, %r11
	movslq	%r9d, %r9
	incl	%edx
	movzbl	(%rsi,%r11), %eax
	movzbl	(%rdi,%r11), %r11d
	addq	%r8, %r9
	leal	(%rax,%rax,2), %eax
	addl	%r11d, %eax
.L540:
	leal	(%rax,%rax,2), %r11d
	leal	8(%rcx,%r11), %ecx
	sarl	$4, %ecx
	movb	%cl, (%r9)
	cmpl	%edx, %r10d
	jle	.L542
	movslq	%edx, %rdx
	.p2align 4
	.p2align 3
.L543:
	movl	%eax, %ecx
	movzbl	(%rsi,%rdx), %eax
	movzbl	(%rdi,%rdx), %r9d
	leal	(%rax,%rax,2), %eax
	addl	%r9d, %eax
	leal	(%rcx,%rcx,2), %r9d
	leal	8(%rax,%r9), %r9d
	sarl	$4, %r9d
	movb	%r9b, -1(%r8,%rdx,2)
	leal	(%rax,%rax,2), %r9d
	leal	8(%rcx,%r9), %ecx
	sarl	$4, %ecx
	movb	%cl, (%r8,%rdx,2)
	incq	%rdx
	cmpl	%edx, %r10d
	jg	.L543
.L542:
	addl	%r10d, %r10d
	addl	$2, %eax
	sarl	$2, %eax
	movslq	%r10d, %r10
	movb	%al, -1(%r8,%r10)
	movq	%r8, %rax
	ret
	.p2align 4
	.p2align 3
.L547:
	addl	$2, %ecx
	movq	%r8, %rax
	sarl	$2, %ecx
	movb	%cl, 1(%r8)
	movb	%cl, (%r8)
	ret
	.p2align 4
	.p2align 3
.L544:
	movq	%r8, %r9
	movl	%ecx, %eax
	movl	$1, %edx
	jmp	.L540
	.cfi_endproc
.LFE668:
	.size	stbi__resample_row_hv_2_simd, .-stbi__resample_row_hv_2_simd
	.p2align 4
	.type	stbi__YCbCr_to_RGB_simd, @function
stbi__YCbCr_to_RGB_simd:
.LFB671:
	.cfi_startproc
	endbr64
	pushq	%r12
	.cfi_def_cfa_offset 16
	.cfi_offset 12, -16
	movq	%rdx, %r10
	pushq	%rbp
	.cfi_def_cfa_offset 24
	.cfi_offset 6, -24
	movq	%rcx, %r11
	pushq	%rbx
	.cfi_def_cfa_offset 32
	.cfi_offset 3, -32
	cmpl	$4, %r9d
	je	.L549
.L561:
	xorl	%eax, %eax
.L551:
	movslq	%r9d, %r9
	movslq	%eax, %rcx
	cmpl	%eax, %r8d
	jg	.L559
	jmp	.L565
	.p2align 4
	.p2align 3
.L567:
	movl	%ebp, %ebx
.L554:
	cmpl	$255, %eax
	jbe	.L556
	notl	%eax
	sarl	$31, %eax
.L556:
	cmpl	$255, %edx
	jbe	.L558
	notl	%edx
	sarl	$31, %edx
.L558:
	incq	%rcx
	movb	%bl, (%rdi)
	movb	%al, 1(%rdi)
	movb	%dl, 2(%rdi)
	movb	$-1, 3(%rdi)
	addq	%r9, %rdi
	cmpl	%ecx, %r8d
	jle	.L565
.L559:
	movzbl	(%r11,%rcx), %ebp
	movzbl	(%rsi,%rcx), %r12d
	movzbl	(%r10,%rcx), %edx
	addl	$-128, %ebp
	sall	$20, %r12d
	imull	$1470208, %ebp, %eax
	addl	$-128, %edx
	imull	$-748800, %ebp, %ebp
	leal	524288(%r12,%rax), %ebx
	imull	$-360960, %edx, %eax
	imull	$1858048, %edx, %edx
	leal	524288(%r12,%rbp), %ebp
	xorw	%ax, %ax
	addl	%ebp, %eax
	leal	524288(%r12,%rdx), %edx
	movl	%ebx, %ebp
	sarl	$20, %ebp
	sarl	$20, %eax
	sarl	$20, %edx
	cmpl	$268435455, %ebx
	jbe	.L567
	movl	%ebp, %ebx
	notl	%ebx
	sarl	$31, %ebx
	jmp	.L554
	.p2align 4
	.p2align 3
.L565:
	popq	%rbx
	.cfi_remember_state
	.cfi_def_cfa_offset 24
	popq	%rbp
	.cfi_def_cfa_offset 16
	popq	%r12
	.cfi_def_cfa_offset 8
	ret
	.p2align 4
	.p2align 3
.L549:
	.cfi_restore_state
	cmpl	$7, %r8d
	jle	.L561
	vmovdqa	.LC39(%rip), %xmm9
	vmovdqa	.LC40(%rip), %xmm3
	leal	-8(%r8), %eax
	vpxor	%xmm2, %xmm2, %xmm2
	vmovdqa	.LC41(%rip), %xmm8
	vmovdqa	.LC42(%rip), %xmm7
	shrl	$3, %eax
	vmovdqa	.LC43(%rip), %xmm6
	vmovdqa	.LC44(%rip), %xmm5
	leal	1(%rax), %ebx
	xorl	%eax, %eax
	vmovdqa	.LC2(%rip), %xmm4
	movq	%rbx, %rdx
	leaq	0(,%rbx,8), %rcx
	.p2align 4
	.p2align 3
.L552:
	vmovq	(%r10,%rax), %xmm0
	vmovq	(%r11,%rax), %xmm11
	vmovq	(%rsi,%rax), %xmm12
	vpxor	%xmm3, %xmm0, %xmm0
	vpxor	%xmm3, %xmm11, %xmm11
	vpunpcklbw	%xmm0, %xmm2, %xmm0
	vpunpcklbw	%xmm11, %xmm2, %xmm11
	vpunpcklbw	%xmm12, %xmm9, %xmm12
	vpmulhw	%xmm0, %xmm7, %xmm1
	vpsrlw	$4, %xmm12, %xmm12
	vpmulhw	%xmm11, %xmm8, %xmm10
	vpaddw	%xmm12, %xmm1, %xmm1
	vpmulhw	%xmm6, %xmm0, %xmm0
	vpaddw	%xmm12, %xmm10, %xmm10
	vpsraw	$4, %xmm10, %xmm10
	vpmulhw	%xmm5, %xmm11, %xmm11
	vpaddw	%xmm12, %xmm0, %xmm0
	vpsraw	$4, %xmm0, %xmm0
	vpackuswb	%xmm0, %xmm10, %xmm10
	vpaddw	%xmm11, %xmm1, %xmm1
	vpsraw	$4, %xmm1, %xmm1
	vpackuswb	%xmm4, %xmm1, %xmm0
	vpunpcklbw	%xmm0, %xmm10, %xmm1
	vpunpckhbw	%xmm0, %xmm10, %xmm0
	vpunpcklwd	%xmm0, %xmm1, %xmm10
	vpunpckhwd	%xmm0, %xmm1, %xmm1
	vmovdqu	%xmm10, (%rdi,%rax,4)
	vmovdqu	%xmm1, 16(%rdi,%rax,4)
	addq	$8, %rax
	cmpq	%rcx, %rax
	jne	.L552
	salq	$5, %rbx
	leal	0(,%rdx,8), %eax
	addq	%rbx, %rdi
	jmp	.L551
	.cfi_endproc
.LFE671:
	.size	stbi__YCbCr_to_RGB_simd, .-stbi__YCbCr_to_RGB_simd
	.p2align 4
	.type	stbi__idct_simd, @function
stbi__idct_simd:
.LFB652:
	.cfi_startproc
	endbr64
	vmovdqa	32(%rdx), %xmm0
	vmovdqa	64(%rdx), %xmm4
	movslq	%esi, %rsi
	vpunpcklwd	96(%rdx), %xmm0, %xmm1
	vmovdqa	(%rdx), %xmm3
	leaq	(%rdi,%rsi), %rax
	vpunpckhwd	96(%rdx), %xmm0, %xmm0
	vmovdqa	48(%rdx), %xmm5
	vpmaddwd	.LC45(%rip), %xmm0, %xmm6
	vmovdqa	112(%rdx), %xmm9
	vmovdqa	16(%rdx), %xmm2
	vmovdqa	80(%rdx), %xmm8
	vpmaddwd	.LC46(%rip), %xmm0, %xmm7
	vpmaddwd	.LC45(%rip), %xmm1, %xmm14
	vpxor	%xmm0, %xmm0, %xmm0
	vpmaddwd	.LC46(%rip), %xmm1, %xmm15
	vpaddw	%xmm4, %xmm3, %xmm1
	vpsubw	%xmm4, %xmm3, %xmm3
	vmovdqa	%xmm6, -104(%rsp)
	vpunpcklwd	%xmm1, %xmm0, %xmm6
	vpunpckhwd	%xmm1, %xmm0, %xmm1
	vpsrad	$4, %xmm1, %xmm1
	vmovdqa	%xmm1, -56(%rsp)
	vpunpcklwd	%xmm3, %xmm0, %xmm1
	vpunpckhwd	%xmm3, %xmm0, %xmm3
	vpunpckhwd	%xmm2, %xmm8, %xmm4
	vpsrad	$4, %xmm3, %xmm3
	vmovdqa	%xmm3, -40(%rsp)
	vpunpcklwd	%xmm2, %xmm8, %xmm3
	vpaddw	%xmm8, %xmm5, %xmm8
	vpaddw	%xmm9, %xmm2, %xmm2
	vpmaddwd	.LC49(%rip), %xmm3, %xmm12
	vpsrad	$4, %xmm6, %xmm13
	vmovdqa	%xmm7, -88(%rsp)
	vpunpcklwd	%xmm5, %xmm9, %xmm6
	vpunpckhwd	%xmm5, %xmm9, %xmm7
	vpmaddwd	.LC47(%rip), %xmm6, %xmm10
	vpunpcklwd	%xmm8, %xmm2, %xmm5
	vpmaddwd	.LC47(%rip), %xmm7, %xmm11
	vpunpckhwd	%xmm8, %xmm2, %xmm2
	vmovdqa	%xmm13, -72(%rsp)
	vpmaddwd	.LC48(%rip), %xmm6, %xmm6
	vpsrad	$4, %xmm1, %xmm1
	vpmaddwd	.LC48(%rip), %xmm7, %xmm7
	vpmaddwd	.LC49(%rip), %xmm4, %xmm13
	vmovdqa	%xmm15, -24(%rsp)
	vpmaddwd	.LC51(%rip), %xmm5, %xmm9
	vpmaddwd	.LC51(%rip), %xmm2, %xmm8
	vpmaddwd	.LC50(%rip), %xmm3, %xmm3
	vpmaddwd	.LC52(%rip), %xmm2, %xmm2
	vpmaddwd	.LC52(%rip), %xmm5, %xmm5
	vpmaddwd	.LC50(%rip), %xmm4, %xmm4
	vpaddd	%xmm9, %xmm10, %xmm10
	vpaddd	%xmm9, %xmm3, %xmm3
	vmovdqa	-56(%rsp), %xmm9
	vpaddd	%xmm8, %xmm11, %xmm11
	vpaddd	%xmm2, %xmm13, %xmm13
	vpaddd	%xmm2, %xmm7, %xmm7
	vmovdqa	-72(%rsp), %xmm2
	vpaddd	%xmm5, %xmm12, %xmm12
	vpaddd	%xmm5, %xmm6, %xmm6
	vpaddd	-88(%rsp), %xmm9, %xmm5
	vpaddd	%xmm8, %xmm4, %xmm4
	vmovdqa	.LC53(%rip), %xmm8
	vpaddd	%xmm15, %xmm2, %xmm2
	vpaddd	%xmm8, %xmm2, %xmm2
	vpaddd	%xmm8, %xmm5, %xmm5
	vpaddd	%xmm4, %xmm5, %xmm15
	vpaddd	%xmm3, %xmm2, %xmm9
	vpsubd	%xmm4, %xmm5, %xmm5
	vpsubd	%xmm3, %xmm2, %xmm2
	vpsrad	$10, %xmm5, %xmm5
	vpaddd	%xmm14, %xmm1, %xmm3
	vpsrad	$10, %xmm15, %xmm15
	vpsrad	$10, %xmm2, %xmm2
	vpackssdw	%xmm5, %xmm2, %xmm2
	vmovdqa	-40(%rsp), %xmm5
	vpaddd	%xmm8, %xmm3, %xmm3
	vpaddd	-104(%rsp), %xmm5, %xmm4
	vpsrad	$10, %xmm9, %xmm9
	vpaddd	%xmm6, %xmm3, %xmm5
	vpackssdw	%xmm15, %xmm9, %xmm9
	vpsubd	%xmm6, %xmm3, %xmm3
	vpaddd	%xmm8, %xmm1, %xmm1
	vpsrad	$10, %xmm5, %xmm5
	vpsrad	$10, %xmm3, %xmm3
	vpsubd	%xmm14, %xmm1, %xmm1
	vpaddd	%xmm12, %xmm1, %xmm6
	vpsubd	%xmm12, %xmm1, %xmm1
	vpsrad	$10, %xmm1, %xmm1
	vpsrad	$10, %xmm6, %xmm6
	vpaddd	%xmm8, %xmm4, %xmm4
	vpaddd	%xmm7, %xmm4, %xmm15
	vpsubd	%xmm7, %xmm4, %xmm4
	vpsrad	$10, %xmm4, %xmm4
	vpackssdw	%xmm4, %xmm3, %xmm3
	vpaddd	-40(%rsp), %xmm8, %xmm4
	vpsrad	$10, %xmm15, %xmm15
	vpsubd	-104(%rsp), %xmm4, %xmm4
	vpackssdw	%xmm15, %xmm5, %xmm5
	vpaddd	%xmm13, %xmm4, %xmm7
	vpsubd	%xmm13, %xmm4, %xmm4
	vpsrad	$10, %xmm4, %xmm4
	vpackssdw	%xmm4, %xmm1, %xmm4
	vpaddd	-56(%rsp), %xmm8, %xmm1
	vpsrad	$10, %xmm7, %xmm7
	vpsubd	-88(%rsp), %xmm1, %xmm1
	vpackssdw	%xmm7, %xmm6, %xmm6
	vpaddd	-72(%rsp), %xmm8, %xmm7
	vpsubd	-24(%rsp), %xmm7, %xmm7
	vpaddd	%xmm11, %xmm1, %xmm12
	vpsubd	%xmm11, %xmm1, %xmm1
	vpaddd	%xmm10, %xmm7, %xmm8
	vpsrad	$10, %xmm1, %xmm11
	vpsubd	%xmm10, %xmm7, %xmm1
	vpsrad	$10, %xmm12, %xmm12
	vpsrad	$10, %xmm8, %xmm8
	vpsrad	$10, %xmm1, %xmm1
	vpackssdw	%xmm12, %xmm8, %xmm8
	vpackssdw	%xmm11, %xmm1, %xmm1
	vpunpcklwd	%xmm1, %xmm9, %xmm10
	vpunpcklwd	%xmm2, %xmm8, %xmm11
	vpunpcklwd	%xmm4, %xmm5, %xmm7
	vpunpckhwd	%xmm1, %xmm9, %xmm1
	vpunpckhwd	%xmm4, %xmm5, %xmm4
	vpunpcklwd	%xmm3, %xmm6, %xmm9
	vpunpckhwd	%xmm2, %xmm8, %xmm5
	vpunpckhwd	%xmm3, %xmm6, %xmm6
	vpunpcklwd	%xmm9, %xmm10, %xmm2
	vpunpcklwd	%xmm11, %xmm7, %xmm3
	vpunpcklwd	%xmm6, %xmm1, %xmm14
	vpunpckhwd	%xmm11, %xmm7, %xmm7
	vpunpcklwd	%xmm5, %xmm4, %xmm8
	vpunpckhwd	%xmm9, %xmm10, %xmm9
	vpunpckhwd	%xmm5, %xmm4, %xmm4
	vpunpckhwd	%xmm6, %xmm1, %xmm1
	vpunpcklwd	%xmm3, %xmm2, %xmm6
	vpunpckhwd	%xmm3, %xmm2, %xmm2
	vpunpcklwd	%xmm7, %xmm9, %xmm3
	vpunpckhwd	%xmm7, %xmm9, %xmm9
	vpunpcklwd	%xmm4, %xmm1, %xmm7
	vpunpckhwd	%xmm4, %xmm1, %xmm1
	vpunpcklwd	%xmm8, %xmm14, %xmm5
	vpunpckhwd	%xmm8, %xmm14, %xmm14
	vpunpcklwd	%xmm7, %xmm3, %xmm4
	vpunpckhwd	%xmm7, %xmm3, %xmm3
	vpmaddwd	.LC45(%rip), %xmm4, %xmm7
	vpmaddwd	.LC45(%rip), %xmm3, %xmm10
	vpunpcklwd	%xmm9, %xmm1, %xmm8
	vmovdqa	%xmm7, -104(%rsp)
	vmovdqa	%xmm10, -88(%rsp)
	vpmaddwd	.LC46(%rip), %xmm4, %xmm15
	vpmaddwd	.LC46(%rip), %xmm3, %xmm4
	vpaddw	%xmm5, %xmm6, %xmm3
	vpunpckhwd	%xmm9, %xmm1, %xmm7
	vpsubw	%xmm5, %xmm6, %xmm5
	vpaddw	%xmm14, %xmm9, %xmm9
	vpunpcklwd	%xmm2, %xmm14, %xmm6
	vpmaddwd	.LC47(%rip), %xmm8, %xmm10
	vpmaddwd	.LC47(%rip), %xmm7, %xmm11
	vpmaddwd	.LC48(%rip), %xmm7, %xmm7
	vpmaddwd	.LC48(%rip), %xmm8, %xmm8
	vmovdqa	%xmm4, -72(%rsp)
	vpunpcklwd	%xmm3, %xmm0, %xmm4
	vpunpckhwd	%xmm3, %xmm0, %xmm3
	vmovdqa	%xmm15, -40(%rsp)
	vpsrad	$4, %xmm4, %xmm12
	vpunpcklwd	%xmm5, %xmm0, %xmm4
	vpunpckhwd	%xmm5, %xmm0, %xmm0
	vpunpckhwd	%xmm2, %xmm14, %xmm5
	vpaddw	%xmm1, %xmm2, %xmm2
	vmovdqa	%xmm12, -56(%rsp)
	vpmaddwd	.LC49(%rip), %xmm6, %xmm12
	vpmaddwd	.LC50(%rip), %xmm6, %xmm6
	vpunpcklwd	%xmm9, %xmm2, %xmm1
	vpunpckhwd	%xmm9, %xmm2, %xmm2
	vpmaddwd	.LC51(%rip), %xmm1, %xmm9
	vpsrad	$4, %xmm3, %xmm3
	vpmaddwd	.LC51(%rip), %xmm2, %xmm14
	vpmaddwd	.LC49(%rip), %xmm5, %xmm13
	vpsrad	$4, %xmm4, %xmm4
	vpsrad	$4, %xmm0, %xmm0
	vpmaddwd	.LC50(%rip), %xmm5, %xmm5
	vpmaddwd	.LC52(%rip), %xmm2, %xmm2
	vpmaddwd	.LC52(%rip), %xmm1, %xmm1
	vpaddd	%xmm9, %xmm10, %xmm10
	vpaddd	%xmm9, %xmm6, %xmm9
	vmovdqa	-56(%rsp), %xmm6
	vpaddd	%xmm14, %xmm11, %xmm11
	vpaddd	%xmm2, %xmm13, %xmm13
	vpaddd	%xmm14, %xmm5, %xmm14
	vpaddd	%xmm2, %xmm7, %xmm2
	vmovdqa	.LC54(%rip), %xmm7
	vpaddd	-72(%rsp), %xmm3, %xmm5
	vpaddd	%xmm1, %xmm8, %xmm8
	vpaddd	%xmm1, %xmm12, %xmm12
	vpaddd	%xmm15, %xmm6, %xmm6
	vpaddd	%xmm7, %xmm6, %xmm6
	vpaddd	%xmm7, %xmm3, %xmm3
	vpsubd	-72(%rsp), %xmm3, %xmm3
	vpaddd	%xmm7, %xmm5, %xmm5
	vpaddd	%xmm9, %xmm6, %xmm1
	vpaddd	%xmm14, %xmm5, %xmm15
	vpsubd	%xmm9, %xmm6, %xmm6
	vpsubd	%xmm14, %xmm5, %xmm5
	vpaddd	-88(%rsp), %xmm0, %xmm9
	vpsrad	$17, %xmm5, %xmm5
	vpsrad	$17, %xmm6, %xmm6
	vpackssdw	%xmm5, %xmm6, %xmm6
	vpaddd	-104(%rsp), %xmm4, %xmm5
	vpaddd	%xmm7, %xmm0, %xmm0
	vpaddd	%xmm7, %xmm4, %xmm4
	vpsubd	-88(%rsp), %xmm0, %xmm0
	vpsubd	-104(%rsp), %xmm4, %xmm4
	vpsrad	$17, %xmm15, %xmm15
	vpsrad	$17, %xmm1, %xmm1
	vpackssdw	%xmm15, %xmm1, %xmm1
	vpaddd	%xmm7, %xmm9, %xmm9
	vpaddd	%xmm7, %xmm5, %xmm5
	vpaddd	%xmm2, %xmm9, %xmm15
	vpsubd	%xmm2, %xmm9, %xmm9
	vpaddd	%xmm8, %xmm5, %xmm14
	vpaddd	%xmm12, %xmm4, %xmm2
	vpsubd	%xmm8, %xmm5, %xmm5
	vpsrad	$17, %xmm15, %xmm15
	vpaddd	%xmm13, %xmm0, %xmm8
	vpsrad	$17, %xmm2, %xmm2
	vpsubd	%xmm13, %xmm0, %xmm0
	vpsubd	%xmm12, %xmm4, %xmm4
	vpsrad	$17, %xmm8, %xmm8
	vpackssdw	%xmm8, %xmm2, %xmm2
	vpaddd	-56(%rsp), %xmm7, %xmm8
	vpsrad	$17, %xmm0, %xmm0
	vpsubd	-40(%rsp), %xmm8, %xmm8
	vpsrad	$17, %xmm4, %xmm4
	vpackssdw	%xmm0, %xmm4, %xmm4
	vpaddd	%xmm11, %xmm3, %xmm0
	vpsubd	%xmm11, %xmm3, %xmm3
	vpsrad	$17, %xmm0, %xmm0
	vpsrad	$17, %xmm14, %xmm14
	vpsrad	$17, %xmm9, %xmm9
	vpackssdw	%xmm15, %xmm14, %xmm14
	vpsrad	$17, %xmm5, %xmm5
	vpackssdw	%xmm9, %xmm5, %xmm5
	vpackuswb	%xmm14, %xmm1, %xmm1
	vpackuswb	%xmm6, %xmm5, %xmm5
	vpaddd	%xmm10, %xmm8, %xmm7
	vpsrad	$17, %xmm7, %xmm7
	vpackssdw	%xmm0, %xmm7, %xmm7
	vpsrad	$17, %xmm3, %xmm0
	vpsubd	%xmm10, %xmm8, %xmm3
	vpsrad	$17, %xmm3, %xmm3
	vpackssdw	%xmm0, %xmm3, %xmm3
	vpackuswb	%xmm7, %xmm2, %xmm2
	vpackuswb	%xmm4, %xmm3, %xmm3
	vpunpcklbw	%xmm3, %xmm1, %xmm0
	vpunpckhbw	%xmm3, %xmm1, %xmm1
	vpunpcklbw	%xmm5, %xmm2, %xmm3
	vpunpckhbw	%xmm5, %xmm2, %xmm5
	vpunpcklbw	%xmm3, %xmm0, %xmm2
	vpunpckhbw	%xmm3, %xmm0, %xmm0
	vpunpcklbw	%xmm5, %xmm1, %xmm3
	vpunpckhbw	%xmm5, %xmm1, %xmm1
	vpunpcklbw	%xmm3, %xmm2, %xmm4
	vpunpckhbw	%xmm3, %xmm2, %xmm2
	vpunpcklbw	%xmm1, %xmm0, %xmm3
	vpunpckhbw	%xmm1, %xmm0, %xmm0
	vmovq	%xmm4, (%rdi)
	vpshufd	$78, %xmm4, %xmm4
	vmovq	%xmm4, (%rax)
	addq	%rsi, %rax
	vmovq	%xmm2, (%rax)
	addq	%rsi, %rax
	vpshufd	$78, %xmm2, %xmm2
	vmovq	%xmm2, (%rax)
	addq	%rsi, %rax
	vmovq	%xmm3, (%rax)
	addq	%rsi, %rax
	vpshufd	$78, %xmm3, %xmm3
	vmovq	%xmm3, (%rax)
	addq	%rsi, %rax
	vmovq	%xmm0, (%rax)
	vpshufd	$78, %xmm0, %xmm0
	vmovq	%xmm0, (%rax,%rsi)
	ret
	.cfi_endproc
.LFE652:
	.size	stbi__idct_simd, .-stbi__idct_simd
	.p2align 4
	.type	stbi__hdr_convert, @function
stbi__hdr_convert:
.LFB760:
	.cfi_startproc
	pushq	%r12
	.cfi_def_cfa_offset 16
	.cfi_offset 12, -16
	movq	%rdi, %r12
	movzbl	3(%rsi), %edi
	pushq	%rbp
	.cfi_def_cfa_offset 24
	.cfi_offset 6, -24
	pushq	%rbx
	.cfi_def_cfa_offset 32
	.cfi_offset 3, -32
	movl	%edx, %ebx
	testb	%dil, %dil
	jne	.L588
	cmpl	$3, %edx
	je	.L576
	jg	.L577
	cmpl	$1, %edx
	je	.L578
	cmpl	$2, %edx
	jne	.L586
	movl	$0x3f800000, 4(%r12)
.L578:
	movl	$0x00000000, (%r12)
.L586:
	popq	%rbx
	.cfi_remember_state
	.cfi_def_cfa_offset 24
	popq	%rbp
	.cfi_def_cfa_offset 16
	popq	%r12
	.cfi_def_cfa_offset 8
	ret
	.p2align 4
	.p2align 3
.L577:
	.cfi_restore_state
	cmpl	$4, %edx
	jne	.L586
	movl	$0x3f800000, 12(%r12)
.L576:
	popq	%rbx
	.cfi_remember_state
	.cfi_def_cfa_offset 24
	movl	$0x00000000, 8(%r12)
	movq	$0, (%r12)
	popq	%rbp
	.cfi_def_cfa_offset 16
	popq	%r12
	.cfi_def_cfa_offset 8
	ret
	.p2align 4
	.p2align 3
.L588:
	.cfi_restore_state
	vmovsd	.LC55(%rip), %xmm0
	subl	$136, %edi
	movq	%rsi, %rbp
	call	ldexp@PLT
	cmpl	$2, %ebx
	movzbl	0(%rbp), %eax
	vxorps	%xmm1, %xmm1, %xmm1
	vcvtsd2ss	%xmm0, %xmm0, %xmm0
	jg	.L571
	movzbl	1(%rbp), %edx
	addl	%edx, %eax
	movzbl	2(%rbp), %edx
	addl	%edx, %eax
	vcvtsi2ssl	%eax, %xmm1, %xmm1
	vmulss	%xmm0, %xmm1, %xmm1
	vdivss	.LC56(%rip), %xmm1, %xmm1
	vmovss	%xmm1, (%r12)
	cmpl	$2, %ebx
	jne	.L586
	popq	%rbx
	.cfi_remember_state
	.cfi_def_cfa_offset 24
	movl	$0x3f800000, 4(%r12)
	popq	%rbp
	.cfi_def_cfa_offset 16
	popq	%r12
	.cfi_def_cfa_offset 8
	ret
	.p2align 4
	.p2align 3
.L571:
	.cfi_restore_state
	vcvtsi2ssl	%eax, %xmm1, %xmm2
	vmulss	%xmm0, %xmm2, %xmm2
	vmovss	%xmm2, (%r12)
	movzbl	1(%rbp), %eax
	vcvtsi2ssl	%eax, %xmm1, %xmm2
	vmulss	%xmm0, %xmm2, %xmm2
	vmovss	%xmm2, 4(%r12)
	movzbl	2(%rbp), %eax
	vcvtsi2ssl	%eax, %xmm1, %xmm1
	vmulss	%xmm0, %xmm1, %xmm1
	vmovss	%xmm1, 8(%r12)
	cmpl	$4, %ebx
	jne	.L586
	popq	%rbx
	.cfi_def_cfa_offset 24
	movl	$0x3f800000, 12(%r12)
	popq	%rbp
	.cfi_def_cfa_offset 16
	popq	%r12
	.cfi_def_cfa_offset 8
	ret
	.cfi_endproc
.LFE760:
	.size	stbi__hdr_convert, .-stbi__hdr_convert
	.p2align 4
	.type	stbi__stdio_write, @function
stbi__stdio_write:
.LFB787:
	.cfi_startproc
	endbr64
	movq	%rdi, %rcx
	movslq	%edx, %rdx
	movq	%rsi, %rdi
	movl	$1, %esi
	jmp	fwrite@PLT
	.cfi_endproc
.LFE787:
	.size	stbi__stdio_write, .-stbi__stdio_write
	.p2align 4
	.type	stbi__skip.part.0, @function
stbi__skip.part.0:
.LFB838:
	.cfi_startproc
	cmpq	$0, 16(%rdi)
	movq	192(%rdi), %rax
	je	.L591
	movq	200(%rdi), %rcx
	movq	%rcx, %rdx
	subq	%rax, %rdx
	cmpl	%esi, %edx
	jl	.L592
.L591:
	movslq	%esi, %rsi
	addq	%rsi, %rax
	movq	%rax, 192(%rdi)
	ret
	.p2align 4
	.p2align 3
.L592:
	movq	40(%rdi), %r8
	movq	24(%rdi), %rax
	movq	%rcx, 192(%rdi)
	subl	%edx, %esi
	movq	%r8, %rdi
	jmp	*%rax
	.cfi_endproc
.LFE838:
	.size	stbi__skip.part.0, .-stbi__skip.part.0
	.p2align 4
	.type	stbi__resample_row_h_2, @function
stbi__resample_row_h_2:
.LFB666:
	.cfi_startproc
	endbr64
	movq	%rdi, %r8
	movslq	%ecx, %rdi
	movzbl	(%rsi), %eax
	cmpl	$1, %edi
	je	.L613
	leal	(%rax,%rax,2), %edx
	movb	%al, (%r8)
	movzbl	1(%rsi), %eax
	leal	-1(%rdi), %ecx
	leal	2(%rdx,%rax), %eax
	sarl	$2, %eax
	movb	%al, 1(%r8)
	cmpl	$1, %ecx
	jle	.L603
	leal	-2(%rdi), %r11d
	leaq	2(%r8), %rdx
	leal	-3(%rdi), %eax
	leaq	2(%r8,%r11,2), %r9
	movq	%r11, %r10
	leaq	2(%rsi,%r11), %r11
	cmpq	%r9, %rsi
	setnb	%r9b
	cmpq	%r11, %rdx
	setnb	%r11b
	orb	%r11b, %r9b
	je	.L597
	cmpl	$14, %eax
	jbe	.L597
	vmovdqa	.LC0(%rip), %xmm4
	vmovdqa	.LC1(%rip), %xmm3
	movl	%r10d, %r9d
	leaq	1(%rsi), %rax
	vmovdqa	.LC2(%rip), %xmm2
	shrl	$4, %r9d
	decl	%r9d
	salq	$4, %r9
	leaq	17(%rsi,%r9), %r9
	vpmovzxbw	%xmm4, %xmm5
	vpsrldq	$8, %xmm4, %xmm4
	vpmovzxbw	%xmm4, %xmm4
	.p2align 4
	.p2align 3
.L598:
	vmovdqu	(%rax), %xmm6
	vmovdqu	-1(%rax), %xmm1
	addq	$16, %rax
	addq	$32, %rdx
	vpmovzxbw	%xmm6, %xmm8
	vpsrldq	$8, %xmm6, %xmm6
	vpmovzxbw	%xmm6, %xmm6
	vpmovzxbw	%xmm1, %xmm0
	vpmullw	%xmm5, %xmm8, %xmm8
	vpsrldq	$8, %xmm1, %xmm1
	vpmovzxbw	%xmm1, %xmm1
	vpmullw	%xmm4, %xmm6, %xmm6
	vpaddw	%xmm3, %xmm8, %xmm8
	vpaddw	%xmm8, %xmm0, %xmm0
	vpsrlw	$2, %xmm0, %xmm0
	vpand	%xmm0, %xmm2, %xmm0
	vpaddw	%xmm3, %xmm6, %xmm6
	vpaddw	%xmm6, %xmm1, %xmm1
	vpsrlw	$2, %xmm1, %xmm1
	vpand	%xmm1, %xmm2, %xmm1
	vpackuswb	%xmm1, %xmm0, %xmm0
	vmovdqu	-15(%rax), %xmm1
	vpmovzxbw	%xmm1, %xmm7
	vpsrldq	$8, %xmm1, %xmm1
	vpmovzxbw	%xmm1, %xmm1
	vpaddw	%xmm6, %xmm1, %xmm1
	vpaddw	%xmm8, %xmm7, %xmm7
	vpsrlw	$2, %xmm7, %xmm7
	vpsrlw	$2, %xmm1, %xmm1
	vpand	%xmm7, %xmm2, %xmm6
	vpand	%xmm1, %xmm2, %xmm1
	vpackuswb	%xmm1, %xmm6, %xmm1
	vpunpcklbw	%xmm1, %xmm0, %xmm6
	vpunpckhbw	%xmm1, %xmm0, %xmm0
	vmovdqu	%xmm6, -32(%rdx)
	vmovdqu	%xmm0, -16(%rdx)
	cmpq	%rax, %r9
	jne	.L598
	movl	%r10d, %edx
	andl	$-16, %edx
	leal	1(%rdx), %eax
	cmpl	%edx, %r10d
	je	.L602
	cltq
	.p2align 4
	.p2align 3
.L600:
	movzbl	(%rsi,%rax), %edx
	leal	2(%rdx,%rdx,2), %r9d
	movzbl	-1(%rsi,%rax), %edx
	addl	%r9d, %edx
	sarl	$2, %edx
	movb	%dl, (%r8,%rax,2)
	movzbl	1(%rsi,%rax), %edx
	addl	%r9d, %edx
	sarl	$2, %edx
	movb	%dl, 1(%r8,%rax,2)
	incq	%rax
	cmpl	%eax, %ecx
	jg	.L600
.L602:
	addl	%ecx, %ecx
	movslq	%ecx, %rcx
	leaq	1(%rcx), %r9
.L596:
	movzbl	-2(%rsi,%rdi), %eax
	leaq	-1(%rsi,%rdi), %rdx
	leal	(%rax,%rax,2), %esi
	movzbl	(%rdx), %eax
	leal	2(%rsi,%rax), %eax
	sarl	$2, %eax
	movb	%al, (%r8,%rcx)
	movzbl	(%rdx), %eax
	movb	%al, (%r8,%r9)
	movq	%r8, %rax
	ret
	.p2align 4
	.p2align 3
.L613:
	movb	%al, 1(%r8)
	movb	%al, (%r8)
	movq	%r8, %rax
	ret
	.p2align 4
	.p2align 3
.L597:
	leaq	2(%rax), %r10
	movl	$1, %eax
	.p2align 4
	.p2align 3
.L601:
	movzbl	(%rsi,%rax), %edx
	leal	2(%rdx,%rdx,2), %r9d
	movzbl	-1(%rsi,%rax), %edx
	addl	%r9d, %edx
	sarl	$2, %edx
	movb	%dl, (%r8,%rax,2)
	movzbl	1(%rsi,%rax), %edx
	addl	%r9d, %edx
	sarl	$2, %edx
	movb	%dl, 1(%r8,%rax,2)
	incq	%rax
	cmpq	%rax, %r10
	jne	.L601
	jmp	.L602
	.p2align 4
	.p2align 3
.L603:
	movl	$3, %r9d
	movl	$2, %ecx
	jmp	.L596
	.cfi_endproc
.LFE666:
	.size	stbi__resample_row_h_2, .-stbi__resample_row_h_2
	.p2align 4
	.type	stbi__stdio_eof, @function
stbi__stdio_eof:
.LFB577:
	.cfi_startproc
	endbr64
	pushq	%rbp
	.cfi_def_cfa_offset 16
	.cfi_offset 6, -16
	movq	%rdi, %rbp
	call	feof@PLT
	movl	%eax, %r8d
	movl	$1, %eax
	testl	%r8d, %r8d
	je	.L619
	popq	%rbp
	.cfi_remember_state
	.cfi_def_cfa_offset 8
	ret
	.p2align 4
	.p2align 3
.L619:
	.cfi_restore_state
	movq	%rbp, %rdi
	call	ferror@PLT
	popq	%rbp
	.cfi_def_cfa_offset 8
	testl	%eax, %eax
	setne	%al
	movzbl	%al, %eax
	ret
	.cfi_endproc
.LFE577:
	.size	stbi__stdio_eof, .-stbi__stdio_eof
	.section	.rodata.str1.1
.LC59:
	.string	"p"
	.text
	.p2align 4
	.type	stbiw__sbgrowf.part.0, @function
stbiw__sbgrowf.part.0:
.LFB853:
	.cfi_startproc
	pushq	%rax
	.cfi_def_cfa_offset 16
	popq	%rax
	.cfi_def_cfa_offset 8
	leaq	__PRETTY_FUNCTION__.22(%rip), %rcx
	movl	$830, %edx
	leaq	.LC8(%rip), %rsi
	leaq	.LC59(%rip), %rdi
	subq	$8, %rsp
	.cfi_def_cfa_offset 16
	call	__assert_fail@PLT
	.cfi_endproc
.LFE853:
	.size	stbiw__sbgrowf.part.0, .-stbiw__sbgrowf.part.0
	.section	.rodata.str1.1
.LC60:
	.string	"111 221 2222 11"
	.text
	.p2align 4
	.type	stbiw__writef.constprop.0, @function
stbiw__writef.constprop.0:
.LFB865:
	.cfi_startproc
	subq	$216, %rsp
	.cfi_def_cfa_offset 224
	movq	%rdx, 48(%rsp)
	movq	%rcx, 56(%rsp)
	movq	%r8, 64(%rsp)
	movq	%r9, 72(%rsp)
	testb	%al, %al
	je	.L623
	vmovaps	%xmm0, 80(%rsp)
	vmovaps	%xmm1, 96(%rsp)
	vmovaps	%xmm2, 112(%rsp)
	vmovaps	%xmm3, 128(%rsp)
	vmovaps	%xmm4, 144(%rsp)
	vmovaps	%xmm5, 160(%rsp)
	vmovaps	%xmm6, 176(%rsp)
	vmovaps	%xmm7, 192(%rsp)
.L623:
	movq	%rsp, %rdx
	leaq	.LC60(%rip), %rsi
	movq	%fs:40, %rax
	movq	%rax, 24(%rsp)
	xorl	%eax, %eax
	leaq	224(%rsp), %rax
	movl	$16, (%rsp)
	movl	$48, 4(%rsp)
	movq	%rax, 8(%rsp)
	leaq	32(%rsp), %rax
	movq	%rax, 16(%rsp)
	call	stbiw__writefv
	movq	24(%rsp), %rax
	subq	%fs:40, %rax
	jne	.L627
	addq	$216, %rsp
	.cfi_remember_state
	.cfi_def_cfa_offset 8
	ret
.L627:
	.cfi_restore_state
	call	__stack_chk_fail@PLT
	.cfi_endproc
.LFE865:
	.size	stbiw__writef.constprop.0, .-stbiw__writef.constprop.0
	.p2align 4
	.type	stbi__free_jpeg_components.constprop.0, @function
stbi__free_jpeg_components.constprop.0:
.LFB866:
	.cfi_startproc
	testl	%esi, %esi
	jle	.L645
	leal	-1(%rsi), %eax
	pushq	%rbp
	.cfi_def_cfa_offset 16
	.cfi_offset 6, -16
	pushq	%rbx
	.cfi_def_cfa_offset 24
	.cfi_offset 3, -24
	leaq	18128(%rdi), %rbx
	leaq	(%rax,%rax,2), %rax
	subq	$8, %rsp
	.cfi_def_cfa_offset 32
	salq	$5, %rax
	leaq	18224(%rdi,%rax), %rbp
.L633:
	movq	8(%rbx), %rdi
	testq	%rdi, %rdi
	je	.L630
	call	free@PLT
	vpxor	%xmm0, %xmm0, %xmm0
	vmovdqu	%xmm0, (%rbx)
.L630:
	movq	16(%rbx), %rdi
	testq	%rdi, %rdi
	je	.L631
	call	free@PLT
	movq	$0, 16(%rbx)
	movq	$0, 32(%rbx)
.L631:
	movq	24(%rbx), %rdi
	testq	%rdi, %rdi
	je	.L632
	call	free@PLT
	movq	$0, 24(%rbx)
.L632:
	addq	$96, %rbx
	cmpq	%rbp, %rbx
	jne	.L633
	addq	$8, %rsp
	.cfi_def_cfa_offset 24
	xorl	%eax, %eax
	popq	%rbx
	.cfi_def_cfa_offset 16
	popq	%rbp
	.cfi_def_cfa_offset 8
	ret
	.p2align 4
	.p2align 3
.L645:
	.cfi_restore 3
	.cfi_restore 6
	xorl	%eax, %eax
	ret
	.cfi_endproc
.LFE866:
	.size	stbi__free_jpeg_components.constprop.0, .-stbi__free_jpeg_components.constprop.0
	.section	.rodata.str1.8
	.align 8
.LC61:
	.string	"EXPOSURE=          1.0000000000000\n\n-Y %d +X %d\n"
	.text
	.p2align 4
	.type	stbi_write_hdr_core.part.0, @function
stbi_write_hdr_core.part.0:
.LFB856:
	.cfi_startproc
	pushq	%r15
	.cfi_def_cfa_offset 16
	.cfi_offset 15, -16
	pushq	%r14
	.cfi_def_cfa_offset 24
	.cfi_offset 14, -24
	movq	%rdi, %r14
	leal	0(,%rsi,4), %edi
	pushq	%r13
	.cfi_def_cfa_offset 32
	.cfi_offset 13, -32
	pushq	%r12
	.cfi_def_cfa_offset 40
	.cfi_offset 12, -40
	movslq	%edi, %rdi
	movl	%edx, %r12d
	pushq	%rbp
	.cfi_def_cfa_offset 48
	.cfi_offset 6, -48
	pushq	%rbx
	.cfi_def_cfa_offset 56
	.cfi_offset 3, -56
	movl	%esi, %r15d
	movslq	%ecx, %rbx
	subq	$360, %rsp
	.cfi_def_cfa_offset 416
	movq	%r8, 88(%rsp)
	movl	%esi, 12(%rsp)
	leaq	208(%rsp), %rbp
	movl	%edx, 72(%rsp)
	movq	%fs:40, %rax
	movq	%rax, 344(%rsp)
	xorl	%eax, %eax
	call	malloc@PLT
	vmovdqa	.LC64(%rip), %xmm0
	leaq	128(%rsp), %rsi
	movl	$65, %edx
	movq	8(%r14), %rdi
	movq	%rax, 64(%rsp)
	movw	$10, 192(%rsp)
	vmovdqa	%xmm0, 128(%rsp)
	vmovdqa	.LC65(%rip), %xmm0
	vmovdqa	%xmm0, 144(%rsp)
	vmovdqa	.LC66(%rip), %xmm0
	vmovdqa	%xmm0, 160(%rsp)
	vmovdqa	.LC67(%rip), %xmm0
	vmovdqa	%xmm0, 176(%rsp)
	call	*(%r14)
	movl	$128, %edx
	movl	$1, %esi
	movq	%rbp, %rdi
	xorl	%eax, %eax
	movl	%r15d, %r9d
	movl	%r12d, %r8d
	leaq	.LC61(%rip), %rcx
	call	__sprintf_chk@PLT
	movq	8(%r14), %rdi
	movq	%rbp, %rsi
	movl	%eax, %edx
	call	*(%r14)
	testl	%r12d, %r12d
	jle	.L654
	movl	12(%rsp), %eax
	movl	$1, 36(%rsp)
	movl	%eax, %esi
	movbew	%ax, 86(%rsp)
	imull	%ebx, %esi
	movl	%esi, 76(%rsp)
	leal	-8(%rax), %esi
	movl	%esi, 80(%rsp)
	leal	-3(%rbx), %esi
	movl	%esi, 32(%rsp)
	leal	(%rax,%rax), %esi
	movl	%esi, 96(%rsp)
	addl	%eax, %esi
	leaq	0(,%rbx,4), %rax
	movq	%rax, 24(%rsp)
	movl	36(%rsp), %eax
	movl	%esi, 100(%rsp)
.L653:
	leal	-1(%rax), %edx
	movl	stbi__flip_vertically_on_write(%rip), %ecx
	testl	%ecx, %ecx
	je	.L650
	movl	72(%rsp), %edx
	subl	%eax, %edx
.L650:
	imull	76(%rsp), %edx
	movq	88(%rsp), %rax
	movl	$514, 124(%rsp)
	cmpl	$32759, 80(%rsp)
	movslq	%edx, %rdx
	leaq	(%rax,%rdx,4), %rbp
	movzwl	86(%rsp), %eax
	movw	%ax, 126(%rsp)
	jbe	.L651
	movl	12(%rsp), %eax
	xorl	%r13d, %r13d
	leaq	120(%rsp), %rbx
	testl	%eax, %eax
	jg	.L661
	jmp	.L660
	.p2align 4
	.p2align 3
.L688:
	vmovss	.LC62(%rip), %xmm5
	vmovaps	%xmm1, %xmm2
	vmovaps	%xmm1, %xmm3
	vmovaps	%xmm1, %xmm4
	vcomiss	%xmm2, %xmm5
	jbe	.L707
.L717:
	movl	$0, 120(%rsp)
.L715:
	movq	8(%r14), %rdi
	movl	$4, %edx
	movq	%rbx, %rsi
	incl	%r13d
	call	*(%r14)
	addq	24(%rsp), %rbp
	cmpl	%r13d, 12(%rsp)
	je	.L660
.L661:
	cmpl	$1, 32(%rsp)
	vmovss	0(%rbp), %xmm1
	ja	.L688
	vmovss	8(%rbp), %xmm4
	vmovss	4(%rbp), %xmm3
	vmovss	.LC62(%rip), %xmm5
	vmaxss	%xmm4, %xmm3, %xmm2
	vmaxss	%xmm2, %xmm1, %xmm2
	vcomiss	%xmm2, %xmm5
	ja	.L717
.L707:
	vcvtss2sd	%xmm2, %xmm2, %xmm0
	leaq	116(%rsp), %rdi
	vmovss	%xmm1, 44(%rsp)
	vmovss	%xmm3, 40(%rsp)
	vmovss	%xmm4, 16(%rsp)
	vmovss	%xmm2, (%rsp)
	call	frexp@PLT
	vmovss	(%rsp), %xmm2
	xorl	%eax, %eax
	vcvtsd2ss	%xmm0, %xmm0, %xmm0
	vmulss	.LC63(%rip), %xmm0, %xmm0
	vmovss	44(%rsp), %xmm1
	vmovss	40(%rsp), %xmm3
	vmovss	16(%rsp), %xmm4
	movzbl	116(%rsp), %esi
	vdivss	%xmm2, %xmm0, %xmm0
	vmulss	%xmm1, %xmm0, %xmm1
	vmulss	%xmm3, %xmm0, %xmm3
	vmulss	%xmm4, %xmm0, %xmm0
	vcvttss2sil	%xmm1, %edx
	movb	%dl, %al
	vcvttss2sil	%xmm3, %edx
	movb	%dl, %ah
	leal	-128(%rsi), %edx
	movzwl	%ax, %eax
	sall	$24, %edx
	vcvttss2sil	%xmm0, %ecx
	movzbl	%cl, %ecx
	sall	$16, %ecx
	orl	%ecx, %eax
	orl	%edx, %eax
	movl	%eax, 120(%rsp)
	jmp	.L715
.L683:
	movq	56(%rsp), %rsi
	addq	%rsi, (%rsp)
	decl	16(%rsp)
	jne	.L685
.L660:
	movl	36(%rsp), %eax
	leal	1(%rax), %edx
	cmpl	%eax, 72(%rsp)
	je	.L654
	movl	%edx, 36(%rsp)
	movl	%edx, %eax
	jmp	.L653
.L651:
	movq	64(%rsp), %rax
	movl	12(%rsp), %edx
	movq	%r14, 104(%rsp)
	movslq	96(%rsp), %r15
	movq	24(%rsp), %rbx
	movq	%rdx, %rsi
	movq	%rax, (%rsp)
	addq	%rax, %rdx
	movq	%rax, %r13
	movslq	100(%rsp), %rax
	movslq	%esi, %rsi
	movq	%rdx, 16(%rsp)
	movq	%rsi, 56(%rsp)
	movq	%rsi, %r14
	movq	%rax, %r12
	jmp	.L667
.L691:
	vmovss	.LC62(%rip), %xmm6
	vmovaps	%xmm1, %xmm2
	vmovaps	%xmm1, %xmm4
	vmovaps	%xmm1, %xmm3
	vcomiss	%xmm2, %xmm6
	jbe	.L708
.L719:
	movl	$0, 120(%rsp)
	xorl	%edx, %edx
	xorl	%esi, %esi
	xorl	%edi, %edi
	xorl	%r8d, %r8d
.L666:
	movb	%r8b, 0(%r13)
	addq	%rbx, %rbp
	movb	%dil, 0(%r13,%r14)
	incq	%r13
	movb	%sil, -1(%r13,%r15)
	movb	%dl, -1(%r13,%r12)
	cmpq	%r13, 16(%rsp)
	je	.L718
.L667:
	cmpl	$1, 32(%rsp)
	vmovss	0(%rbp), %xmm1
	ja	.L691
	vmovss	8(%rbp), %xmm4
	vmovss	4(%rbp), %xmm3
	vmovss	.LC62(%rip), %xmm6
	vmaxss	%xmm4, %xmm3, %xmm2
	vmaxss	%xmm2, %xmm1, %xmm2
	vcomiss	%xmm2, %xmm6
	ja	.L719
.L708:
	vcvtss2sd	%xmm2, %xmm2, %xmm0
	leaq	116(%rsp), %rdi
	vmovss	%xmm1, 52(%rsp)
	vmovss	%xmm3, 48(%rsp)
	vmovss	%xmm4, 44(%rsp)
	vmovss	%xmm2, 40(%rsp)
	call	frexp@PLT
	vmovss	40(%rsp), %xmm2
	vcvtsd2ss	%xmm0, %xmm0, %xmm0
	vmulss	.LC63(%rip), %xmm0, %xmm0
	vmovss	52(%rsp), %xmm1
	vmovss	48(%rsp), %xmm3
	vmovss	44(%rsp), %xmm4
	movzbl	116(%rsp), %ecx
	leal	-128(%rcx), %edx
	xorl	%ecx, %ecx
	movl	%edx, %r10d
	sall	$24, %r10d
	vdivss	%xmm2, %xmm0, %xmm0
	vmulss	%xmm1, %xmm0, %xmm1
	vmulss	%xmm3, %xmm0, %xmm3
	vmulss	%xmm4, %xmm0, %xmm0
	vcvttss2sil	%xmm1, %r11d
	movb	%r11b, %cl
	vcvttss2sil	%xmm3, %eax
	movb	%al, %ch
	movl	%r11d, %r8d
	movl	%eax, %edi
	movzwl	%cx, %ecx
	vcvttss2sil	%xmm0, %r9d
	movl	%r9d, %esi
	movzbl	%r9b, %r9d
	sall	$16, %r9d
	orl	%r9d, %ecx
	orl	%r10d, %ecx
	movl	%ecx, 120(%rsp)
	jmp	.L666
.L718:
	movq	104(%rsp), %r14
	leaq	124(%rsp), %rsi
	movl	$4, %edx
	leaq	116(%rsp), %rbp
	movq	8(%r14), %rdi
	call	*(%r14)
	movl	$4, 16(%rsp)
.L685:
	xorl	%r15d, %r15d
	.p2align 4
	.p2align 3
.L676:
	movl	12(%rsp), %ecx
	cmpl	%r15d, %ecx
	jle	.L683
	movq	(%rsp), %rdi
	movslq	%r15d, %rax
	leal	2(%r15), %esi
	movl	%r15d, %r13d
	leaq	(%rdi,%rax), %rdx
	movl	%ecx, %edi
	cmpl	%esi, %ecx
	jg	.L671
	jmp	.L720
	.p2align 4
	.p2align 3
.L669:
	incl	%esi
	incl	%r13d
	incq	%rdx
	cmpl	%esi, %edi
	je	.L716
.L671:
	movzbl	(%rdx), %ecx
	cmpb	1(%rdx), %cl
	jne	.L669
	cmpb	2(%rdx), %cl
	jne	.L669
	cmpl	%esi, 12(%rsp)
	jle	.L716
	cmpl	%r13d, %r15d
	jl	.L674
	jmp	.L675
	.p2align 4
	.p2align 3
.L721:
	movslq	%r15d, %rax
.L674:
	movq	(%rsp), %rcx
	movl	%r13d, %ebx
	movl	$128, %edx
	movq	8(%r14), %rdi
	subl	%r15d, %ebx
	movq	%rbp, %rsi
	cmpl	%edx, %ebx
	cmovg	%edx, %ebx
	movl	$1, %edx
	leaq	(%rcx,%rax), %r12
	addl	%ebx, %r15d
	movb	%bl, 116(%rsp)
	call	*(%r14)
	movq	8(%r14), %rdi
	movl	%ebx, %edx
	movq	%r12, %rsi
	call	*(%r14)
	cmpl	%r13d, %r15d
	jl	.L721
.L675:
	leal	2(%r13), %eax
	cmpl	%eax, 12(%rsp)
	jle	.L676
	cmpl	%r13d, 12(%rsp)
	jle	.L678
	movq	(%rsp), %rsi
	movslq	%r15d, %rax
	movl	12(%rsp), %ecx
	movzbl	(%rsi,%rax), %edx
	movslq	%r13d, %rax
	addq	%rsi, %rax
	jmp	.L679
	.p2align 4
	.p2align 3
.L682:
	incl	%r13d
	incq	%rax
	cmpl	%r13d, %ecx
	je	.L678
.L679:
	cmpb	%dl, (%rax)
	je	.L682
.L678:
	leaq	115(%rsp), %r12
	cmpl	%r13d, %r15d
	jge	.L676
	movq	%rbp, %rax
	movq	%r12, %rbp
	movq	%r14, %r12
	movq	%rax, %r14
	.p2align 4
	.p2align 3
.L680:
	movq	(%rsp), %rax
	movl	%r13d, %ebx
	movl	$127, %edx
	movq	8(%r12), %rdi
	subl	%r15d, %ebx
	movq	%r14, %rsi
	cmpl	%edx, %ebx
	cmovg	%edx, %ebx
	movslq	%r15d, %rdx
	movzbl	(%rax,%rdx), %edx
	addl	%ebx, %r15d
	movb	%dl, 115(%rsp)
	leal	-128(%rbx), %edx
	movb	%dl, 116(%rsp)
	movl	$1, %edx
	call	*(%r12)
	movl	$1, %edx
	movq	8(%r12), %rdi
	movq	%rbp, %rsi
	call	*(%r12)
	cmpl	%r13d, %r15d
	jl	.L680
	movq	%r14, %rbp
	movq	%r12, %r14
	jmp	.L676
	.p2align 4
	.p2align 3
.L716:
	movl	12(%rsp), %r13d
	jmp	.L674
.L720:
	movl	%ecx, %r13d
	jmp	.L674
.L654:
	movq	64(%rsp), %rdi
	call	free@PLT
	movq	344(%rsp), %rax
	subq	%fs:40, %rax
	jne	.L722
	addq	$360, %rsp
	.cfi_remember_state
	.cfi_def_cfa_offset 56
	movl	$1, %eax
	popq	%rbx
	.cfi_def_cfa_offset 48
	popq	%rbp
	.cfi_def_cfa_offset 40
	popq	%r12
	.cfi_def_cfa_offset 32
	popq	%r13
	.cfi_def_cfa_offset 24
	popq	%r14
	.cfi_def_cfa_offset 16
	popq	%r15
	.cfi_def_cfa_offset 8
	ret
.L722:
	.cfi_restore_state
	call	__stack_chk_fail@PLT
	.cfi_endproc
.LFE856:
	.size	stbi_write_hdr_core.part.0, .-stbi_write_hdr_core.part.0
	.p2align 4
	.type	stbi__malloc_mad4.constprop.0, @function
stbi__malloc_mad4.constprop.0:
.LFB868:
	.cfi_startproc
	movl	%edi, %eax
	movl	%edx, %r8d
	orl	%esi, %eax
	js	.L723
	testl	%esi, %esi
	je	.L725
	movl	$2147483647, %eax
	cltd
	idivl	%esi
	cmpl	%eax, %edi
	jle	.L725
.L723:
	xorl	%eax, %eax
	ret
	.p2align 4
	.p2align 3
.L725:
	testl	%r8d, %r8d
	js	.L723
	imull	%esi, %edi
	testl	%r8d, %r8d
	je	.L726
	movl	$2147483647, %eax
	cltd
	idivl	%r8d
	cmpl	%eax, %edi
	jg	.L723
.L726:
	testl	%ecx, %ecx
	js	.L723
	imull	%edi, %r8d
	testl	%ecx, %ecx
	je	.L727
	movl	$2147483647, %eax
	cltd
	idivl	%ecx
	cmpl	%eax, %r8d
	jg	.L723
.L727:
	imull	%r8d, %ecx
	movslq	%ecx, %rdi
	jmp	malloc@PLT
	.cfi_endproc
.LFE868:
	.size	stbi__malloc_mad4.constprop.0, .-stbi__malloc_mad4.constprop.0
	.p2align 4
	.type	stbi__malloc_mad3, @function
stbi__malloc_mad3:
.LFB589:
	.cfi_startproc
	movl	%edi, %eax
	movl	%edx, %r8d
	orl	%esi, %eax
	js	.L743
	testl	%esi, %esi
	je	.L745
	movl	$2147483647, %eax
	cltd
	idivl	%esi
	cmpl	%eax, %edi
	jle	.L745
.L743:
	xorl	%eax, %eax
	ret
	.p2align 4
	.p2align 3
.L745:
	testl	%r8d, %r8d
	js	.L743
	imull	%esi, %edi
	testl	%r8d, %r8d
	je	.L746
	movl	$2147483647, %esi
	movl	%esi, %eax
	cltd
	idivl	%r8d
	cmpl	%eax, %edi
	jg	.L743
	imull	%edi, %r8d
	subl	%ecx, %esi
	cmpl	%r8d, %esi
	jl	.L743
.L746:
	addl	%r8d, %ecx
	movslq	%ecx, %rdi
	jmp	malloc@PLT
	.cfi_endproc
.LFE589:
	.size	stbi__malloc_mad3, .-stbi__malloc_mad3
	.p2align 4
	.type	stbiw__outfile.constprop.0, @function
stbiw__outfile.constprop.0:
.LFB872:
	.cfi_startproc
	pushq	%r15
	.cfi_def_cfa_offset 16
	.cfi_offset 15, -16
	pushq	%r14
	.cfi_def_cfa_offset 24
	.cfi_offset 14, -24
	movl	%ecx, %r14d
	pushq	%r13
	.cfi_def_cfa_offset 32
	.cfi_offset 13, -32
	pushq	%r12
	.cfi_def_cfa_offset 40
	.cfi_offset 12, -40
	movl	%r9d, %r12d
	pushq	%rbp
	.cfi_def_cfa_offset 48
	.cfi_offset 6, -48
	pushq	%rbx
	.cfi_def_cfa_offset 56
	.cfi_offset 3, -56
	movq	%rdi, %rbx
	subq	$280, %rsp
	.cfi_def_cfa_offset 336
	movq	344(%rsp), %rdi
	movq	368(%rsp), %rsi
	movl	%r8d, 16(%rsp)
	movq	%rdi, 24(%rsp)
	testb	%al, %al
	je	.L758
	vmovaps	%xmm0, 144(%rsp)
	vmovaps	%xmm1, 160(%rsp)
	vmovaps	%xmm2, 176(%rsp)
	vmovaps	%xmm3, 192(%rsp)
	vmovaps	%xmm4, 208(%rsp)
	vmovaps	%xmm5, 224(%rsp)
	vmovaps	%xmm6, 240(%rsp)
	vmovaps	%xmm7, 256(%rsp)
.L758:
	movl	16(%rsp), %edi
	movq	%fs:40, %rax
	movq	%rax, 88(%rsp)
	xorl	%eax, %eax
	orl	%r14d, %edi
	jns	.L796
.L757:
	movq	88(%rsp), %rdx
	subq	%fs:40, %rdx
	jne	.L797
	addq	$280, %rsp
	.cfi_remember_state
	.cfi_def_cfa_offset 56
	popq	%rbx
	.cfi_def_cfa_offset 48
	popq	%rbp
	.cfi_def_cfa_offset 40
	popq	%r12
	.cfi_def_cfa_offset 32
	popq	%r13
	.cfi_def_cfa_offset 24
	popq	%r14
	.cfi_def_cfa_offset 16
	popq	%r15
	.cfi_def_cfa_offset 8
	ret
	.p2align 4
	.p2align 3
.L796:
	.cfi_restore_state
	leaq	376(%rsp), %rax
	leaq	64(%rsp), %rdx
	movq	%rbx, %rdi
	movl	$48, 64(%rsp)
	movq	%rax, 72(%rsp)
	leaq	96(%rsp), %rax
	movl	$48, 68(%rsp)
	movq	%rax, 80(%rsp)
	call	stbiw__writefv
	movl	$0, 60(%rsp)
	movl	16(%rsp), %r10d
	testl	%r10d, %r10d
	je	.L782
	movl	stbi__flip_vertically_on_write(%rip), %r9d
	testl	%r9d, %r9d
	jne	.L788
	movl	16(%rsp), %eax
	movl	$-1, 32(%rsp)
	movl	$-1, 16(%rsp)
	decl	%eax
	movl	%eax, 4(%rsp)
.L761:
	movl	32(%rsp), %edi
	movl	%r14d, %eax
	imull	%r12d, %eax
	imull	%eax, %edi
	imull	4(%rsp), %eax
	movl	%edi, 36(%rsp)
	movl	%eax, 20(%rsp)
	leaq	60(%rsp), %rax
	movq	%rax, 40(%rsp)
	.p2align 4
	.p2align 3
.L785:
	movl	80(%rbx), %edx
	testl	%r14d, %r14d
	jle	.L784
	movslq	20(%rsp), %rbp
	movslq	%r12d, %r15
	addq	24(%rsp), %rbp
	xorl	%r13d, %r13d
	jmp	.L779
	.p2align 4
	.p2align 3
.L799:
	leal	-1(%r12), %eax
	cmpl	$1, %eax
	ja	.L764
	movl	336(%rsp), %r8d
	movzbl	0(%rbp), %eax
	movslq	%edx, %rsi
	testl	%r8d, %r8d
	jne	.L798
	incq	%rsi
	cmpq	$64, %rsi
	ja	.L770
	movslq	%edx, %rcx
	incl	%edx
.L771:
	movl	%edx, 80(%rbx)
	movb	%al, 16(%rbx,%rcx)
	.p2align 4
	.p2align 3
.L764:
	cmpl	$1, 352(%rsp)
	jne	.L774
	movslq	%edx, %rax
	movzbl	-1(%rbp,%r15), %ecx
	incq	%rax
	cmpq	$64, %rax
	ja	.L777
	movslq	%edx, %rax
	incl	%edx
.L778:
	movl	%edx, 80(%rbx)
	movb	%cl, 16(%rbx,%rax)
.L774:
	incl	%r13d
	addq	%r15, %rbp
	cmpl	%r13d, %r14d
	je	.L784
.L779:
	movq	(%rbx), %rcx
	movq	8(%rbx), %rdi
	movslq	%edx, %rax
	cmpl	$3, %r12d
	je	.L762
	jle	.L799
	cmpl	$4, %r12d
	jne	.L764
	movl	352(%rsp), %r11d
	movslq	%edx, %rax
	movzbl	0(%rbp), %r8d
	movzbl	1(%rbp), %r9d
	movzbl	2(%rbp), %esi
	leaq	3(%rax), %r10
	testl	%r11d, %r11d
	jne	.L762
	movzbl	3(%rbp), %r11d
	movzbl	%r8b, %eax
	subl	$255, %eax
	imull	%r11d, %eax
	movslq	%eax, %r8
	imulq	$-2139062143, %r8, %r8
	shrq	$32, %r8
	addl	%eax, %r8d
	sarl	$31, %eax
	sarl	$7, %r8d
	cmpb	$1, %al
	movzbl	%r9b, %eax
	movl	$2155905153, %r9d
	sbbb	$0, %r8b
	imull	%r11d, %eax
	subl	$255, %esi
	imull	%r11d, %esi
	imulq	%r9, %rax
	movslq	%esi, %r9
	imulq	$-2139062143, %r9, %r9
	shrq	$39, %rax
	shrq	$32, %r9
	addl	%esi, %r9d
	sarl	$31, %esi
	sarl	$7, %r9d
	cmpb	$1, %sil
	sbbb	$0, %r9b
	cmpq	$64, %r10
	ja	.L772
	leal	1(%rdx), %esi
	leal	2(%rdx), %ecx
	movslq	%edx, %rdi
	addl	$3, %edx
.L773:
	movslq	%esi, %rsi
	movl	%edx, 80(%rbx)
	incl	%r13d
	movb	%r9b, 16(%rbx,%rdi)
	movb	%al, 16(%rbx,%rsi)
	movslq	%ecx, %rax
	addq	%r15, %rbp
	movb	%r8b, 16(%rbx,%rax)
	cmpl	%r13d, %r14d
	jne	.L779
	.p2align 4
	.p2align 3
.L784:
	testl	%edx, %edx
	je	.L780
	movq	8(%rbx), %rdi
	leaq	16(%rbx), %rsi
	call	*(%rbx)
	movl	$0, 80(%rbx)
	movq	8(%rbx), %rdi
	movl	360(%rsp), %edx
	movq	40(%rsp), %rsi
	call	*(%rbx)
	movl	32(%rsp), %edi
	addl	%edi, 4(%rsp)
	movl	36(%rsp), %ecx
	movl	4(%rsp), %eax
	addl	%ecx, 20(%rsp)
	cmpl	%eax, 16(%rsp)
	jne	.L785
.L782:
	movl	$1, %eax
	jmp	.L757
.L788:
	movl	$1, 32(%rsp)
	movl	$0, 4(%rsp)
	jmp	.L761
	.p2align 4
	.p2align 3
.L762:
	addq	$3, %rax
	movzbl	0(%rbp), %r8d
	movzbl	1(%rbp), %r9d
	movzbl	2(%rbp), %r10d
	cmpq	$64, %rax
	ja	.L775
	leal	1(%rdx), %ecx
	leal	2(%rdx), %eax
	movslq	%edx, %rsi
	addl	$3, %edx
.L776:
	movslq	%ecx, %rcx
	cltq
	movl	%edx, 80(%rbx)
	movb	%r10b, 16(%rbx,%rsi)
	movb	%r9b, 16(%rbx,%rcx)
	movb	%r8b, 16(%rbx,%rax)
	jmp	.L764
	.p2align 4
	.p2align 3
.L777:
	movb	%cl, 10(%rsp)
	movq	8(%rbx), %rdi
	leaq	16(%rbx), %rsi
	call	*(%rbx)
	movzbl	10(%rsp), %ecx
	movl	$1, %edx
	xorl	%eax, %eax
	jmp	.L778
	.p2align 4
	.p2align 3
.L775:
	movb	%r10b, 12(%rsp)
	movb	%r9b, 11(%rsp)
	leaq	16(%rbx), %rsi
	movb	%r8b, 10(%rsp)
	call	*%rcx
	movl	$2, %eax
	movl	$1, %ecx
	movl	$3, %edx
	movzbl	12(%rsp), %r10d
	movzbl	11(%rsp), %r9d
	xorl	%esi, %esi
	movzbl	10(%rsp), %r8d
	jmp	.L776
	.p2align 4
	.p2align 3
.L770:
	movb	%al, 10(%rsp)
	leaq	16(%rbx), %rsi
	call	*%rcx
	movzbl	10(%rsp), %eax
	xorl	%ecx, %ecx
	movl	$1, %edx
	jmp	.L771
	.p2align 4
	.p2align 3
.L798:
	addq	$3, %rsi
	cmpq	$64, %rsi
	ja	.L768
	leal	1(%rdx), %esi
	leal	2(%rdx), %ecx
	movslq	%edx, %rdi
	addl	$3, %edx
.L769:
	movslq	%esi, %rsi
	movslq	%ecx, %rcx
	movl	%edx, 80(%rbx)
	movb	%al, 16(%rbx,%rdi)
	movb	%al, 16(%rbx,%rsi)
	movb	%al, 16(%rbx,%rcx)
	jmp	.L764
	.p2align 4
	.p2align 3
.L772:
	movl	%eax, 12(%rsp)
	movb	%r9b, 11(%rsp)
	leaq	16(%rbx), %rsi
	movb	%r8b, 10(%rsp)
	call	*%rcx
	xorl	%edi, %edi
	movl	$2, %ecx
	movl	$1, %esi
	movl	12(%rsp), %eax
	movzbl	11(%rsp), %r9d
	movl	$3, %edx
	movzbl	10(%rsp), %r8d
	jmp	.L773
	.p2align 4
	.p2align 3
.L780:
	movq	8(%rbx), %rdi
	movl	360(%rsp), %edx
	movq	40(%rsp), %rsi
	call	*(%rbx)
	movl	32(%rsp), %edi
	addl	%edi, 4(%rsp)
	movl	36(%rsp), %ecx
	movl	4(%rsp), %eax
	addl	%ecx, 20(%rsp)
	cmpl	16(%rsp), %eax
	jne	.L785
	movl	$1, %eax
	jmp	.L757
	.p2align 4
	.p2align 3
.L768:
	movb	%al, 10(%rsp)
	leaq	16(%rbx), %rsi
	call	*%rcx
	movl	336(%rsp), %esi
	movzbl	10(%rsp), %eax
	movl	$2, %ecx
	movl	$3, %edx
	xorl	%edi, %edi
	jmp	.L769
.L797:
	call	__stack_chk_fail@PLT
	.cfi_endproc
.LFE872:
	.size	stbiw__outfile.constprop.0, .-stbiw__outfile.constprop.0
	.p2align 4
	.type	stbiw__zlib_flushf, @function
stbiw__zlib_flushf:
.LFB814:
	.cfi_startproc
	cmpl	$7, (%rdx)
	movq	%rdi, %rax
	jle	.L811
	pushq	%r12
	.cfi_def_cfa_offset 16
	.cfi_offset 12, -16
	pushq	%rbp
	.cfi_def_cfa_offset 24
	.cfi_offset 6, -24
	movq	%rdx, %rbp
	pushq	%rbx
	.cfi_def_cfa_offset 32
	.cfi_offset 3, -32
	movq	%rsi, %rbx
	jmp	.L805
	.p2align 4
	.p2align 3
.L815:
	movslq	-4(%rax), %rdx
	movl	-8(%rax), %esi
	leal	1(%rdx), %ecx
	cmpl	%esi, %ecx
	jl	.L803
	leal	1(%rsi,%rsi), %r12d
	leaq	-8(%rax), %rdi
	movslq	%r12d, %rsi
	addq	$8, %rsi
	call	realloc@PLT
	movq	%rax, %rdx
	testq	%rax, %rax
	je	.L807
.L804:
	leaq	8(%rdx), %rax
	movl	%r12d, (%rdx)
	movslq	4(%rdx), %rdx
	leal	1(%rdx), %ecx
.L803:
	movl	(%rbx), %esi
	movl	%ecx, -4(%rax)
	movb	%sil, (%rax,%rdx)
	shrl	$8, (%rbx)
	movl	0(%rbp), %edi
	leal	-8(%rdi), %edx
	movl	%edx, 0(%rbp)
	cmpl	$7, %edx
	jle	.L814
.L805:
	testq	%rax, %rax
	jne	.L815
	movl	$10, %edi
	call	malloc@PLT
	movq	%rax, %rdx
	testq	%rax, %rax
	je	.L807
	movl	$0, 4(%rdx)
	movl	$2, %r12d
	jmp	.L804
	.p2align 4
	.p2align 3
.L814:
	popq	%rbx
	.cfi_def_cfa_offset 24
	popq	%rbp
	.cfi_def_cfa_offset 16
	popq	%r12
	.cfi_def_cfa_offset 8
	ret
	.p2align 4
	.p2align 3
.L811:
	.cfi_restore 3
	.cfi_restore 6
	.cfi_restore 12
	ret
.L807:
	.cfi_def_cfa_offset 32
	.cfi_offset 3, -32
	.cfi_offset 6, -24
	.cfi_offset 12, -16
	leaq	__PRETTY_FUNCTION__.22(%rip), %rcx
	movl	$830, %edx
	leaq	.LC8(%rip), %rsi
	leaq	.LC59(%rip), %rdi
	call	__assert_fail@PLT
	.cfi_endproc
.LFE814:
	.size	stbiw__zlib_flushf, .-stbiw__zlib_flushf
	.p2align 4
	.type	stbi_write_tga_core, @function
stbi_write_tga_core:
.LFB803:
	.cfi_startproc
	pushq	%r15
	.cfi_def_cfa_offset 16
	.cfi_offset 15, -16
	leal	-2(%rcx), %eax
	pushq	%r14
	.cfi_def_cfa_offset 24
	.cfi_offset 14, -24
	pushq	%r13
	.cfi_def_cfa_offset 32
	.cfi_offset 13, -32
	pushq	%r12
	.cfi_def_cfa_offset 40
	.cfi_offset 12, -40
	andl	$-3, %eax
	movl	%ecx, %r12d
	pushq	%rbp
	.cfi_def_cfa_offset 48
	.cfi_offset 6, -48
	pushq	%rbx
	.cfi_def_cfa_offset 56
	.cfi_offset 3, -56
	movl	%eax, %ecx
	movq	%rdi, %rbp
	subq	$72, %rsp
	.cfi_def_cfa_offset 128
	cmpl	$1, %eax
	movl	%edx, %edi
	movq	%r8, %rbx
	movl	%eax, 16(%rsp)
	movl	%r12d, %eax
	movl	%edx, 48(%rsp)
	sbbl	$0, %eax
	movl	%esi, 20(%rsp)
	cmpl	$2, %eax
	movl	%eax, %edx
	setl	%r8b
	setl	%al
	xorl	%r9d, %r9d
	movzbl	%r8b, %r8d
	movzbl	%al, %eax
	addl	$10, %r8d
	addl	$2, %eax
	orl	%esi, %edi
	js	.L816
	testl	%ecx, %ecx
	movl	stbi_write_tga_with_rle(%rip), %r10d
	sete	%cl
	movzbl	%cl, %ecx
	addl	%ecx, %edx
	leal	0(,%rcx,8), %esi
	sall	$3, %edx
	testl	%r10d, %r10d
	je	.L918
	pushq	%rsi
	.cfi_def_cfa_offset 136
	pushq	%rdx
	.cfi_def_cfa_offset 144
	xorl	%r9d, %r9d
	xorl	%ecx, %ecx
	movl	64(%rsp), %r14d
	xorl	%edx, %edx
	leaq	.LC60(%rip), %rsi
	movq	%rbp, %rdi
	pushq	%r14
	.cfi_def_cfa_offset 152
	movl	44(%rsp), %eax
	pushq	%rax
	.cfi_def_cfa_offset 160
	xorl	%eax, %eax
	pushq	$0
	.cfi_def_cfa_offset 168
	pushq	$0
	.cfi_def_cfa_offset 176
	pushq	$0
	.cfi_def_cfa_offset 184
	pushq	$0
	.cfi_def_cfa_offset 192
	call	stbiw__writef.constprop.0
	movl	stbi__flip_vertically_on_write(%rip), %r9d
	addq	$64, %rsp
	.cfi_def_cfa_offset 128
	testl	%r9d, %r9d
	jne	.L883
	decl	%r14d
	movl	$-1, 52(%rsp)
	movl	$-1, 48(%rsp)
	movl	%r14d, 44(%rsp)
.L821:
	movl	48(%rsp), %ecx
	cmpl	%ecx, 44(%rsp)
	je	.L822
	movl	20(%rsp), %ecx
	testl	%ecx, %ecx
	jle	.L822
	movl	52(%rsp), %eax
	movslq	%r12d, %r14
	imull	%ecx, %eax
	imull	%r12d, %eax
	cltq
	movq	%rax, 56(%rsp)
	movl	44(%rsp), %eax
	imull	%ecx, %eax
	imull	%r12d, %eax
	cltq
	addq	%rbx, %rax
	movq	%rax, (%rsp)
	leal	-1(%rcx), %eax
	movl	%eax, 36(%rsp)
	.p2align 4
	.p2align 3
.L824:
	xorl	%r13d, %r13d
	.p2align 4
	.p2align 3
.L823:
	movl	%r12d, %ecx
	movq	(%rsp), %rdi
	leal	1(%r13), %eax
	imull	%r13d, %ecx
	movslq	%ecx, %rbx
	addq	%rdi, %rbx
	cmpl	%r13d, 36(%rsp)
	jle	.L884
	leal	(%rcx,%r12), %r15d
	movq	%r14, %rdx
	movslq	%r15d, %rsi
	addq	%rdi, %rsi
	movq	%rbx, %rdi
	call	memcmp@PLT
	movl	%eax, %ecx
	movl	%eax, 8(%rsp)
	leal	2(%r13), %eax
	testl	%ecx, %ecx
	je	.L826
	movl	20(%rsp), %esi
	cmpl	%eax, %esi
	jle	.L885
	leal	(%r15,%r12), %ecx
	movq	%rbx, 8(%rsp)
	movq	%rbp, 24(%rsp)
	movl	$2, %r15d
	movslq	%ecx, %rcx
	movq	%rbx, %rbp
	movl	%r12d, 32(%rsp)
	movl	%esi, %ebx
	addq	(%rsp), %rcx
	movq	%rcx, %r12
	jmp	.L828
	.p2align 4
	.p2align 3
.L919:
	incl	%r15d
	addq	%r14, %rbp
	addq	%r14, %r12
	leal	(%r15,%r13), %eax
	cmpl	%eax, %ebx
	jle	.L888
	cmpl	$127, %r15d
	jg	.L888
.L828:
	movq	%r14, %rdx
	movq	%r12, %rsi
	movq	%rbp, %rdi
	call	memcmp@PLT
	testl	%eax, %eax
	jne	.L919
	movq	8(%rsp), %rbx
	movq	24(%rsp), %rbp
	decl	%r15d
	movl	32(%rsp), %r12d
	leal	-1(%r15), %ecx
	addl	%r15d, %r13d
.L825:
	movslq	80(%rbp), %rax
	leaq	1(%rax), %rsi
	movq	%rax, %rdx
	cmpq	$64, %rsi
	ja	.L834
	incl	%edx
.L835:
	movl	%edx, 80(%rbp)
	movb	%cl, 16(%rbp,%rax)
	xorl	%eax, %eax
	movl	%r13d, 40(%rsp)
	movq	%r14, %r13
	movl	%r12d, %r14d
	movl	%r15d, %r12d
	movl	%eax, %r15d
	jmp	.L851
	.p2align 4
	.p2align 3
.L921:
	leal	-1(%r14), %eax
	cmpl	$1, %eax
	ja	.L838
	movslq	80(%rbp), %rax
	movzbl	(%rbx), %r8d
	leaq	1(%rax), %rsi
	movq	%rax, %rdx
	cmpq	$64, %rsi
	ja	.L841
	incl	%edx
.L842:
	movl	%edx, 80(%rbp)
	movb	%r8b, 16(%rbp,%rax)
.L843:
	movl	16(%rsp), %edi
	testl	%edi, %edi
	jne	.L838
	movslq	%edx, %rax
	movzbl	-1(%rbx,%r13), %r8d
	incq	%rax
	cmpq	$64, %rax
	ja	.L849
.L922:
	leal	1(%rdx), %eax
.L850:
	movslq	%edx, %rdx
	movl	%eax, 80(%rbp)
	movb	%r8b, 16(%rbp,%rdx)
.L838:
	incl	%r15d
	addq	%r13, %rbx
	cmpl	%r15d, %r12d
	je	.L920
.L851:
	cmpl	$3, %r14d
	je	.L836
	jle	.L921
	cmpl	$4, %r14d
	jne	.L838
	movl	16(%rsp), %r8d
	testl	%r8d, %r8d
	je	.L836
	movzbl	(%rbx), %eax
	movzbl	3(%rbx), %edx
	movzbl	1(%rbx), %r10d
	movslq	80(%rbp), %r11
	subl	$255, %eax
	imull	%edx, %eax
	movq	%r11, %rsi
	movslq	%eax, %r8
	imulq	$-2139062143, %r8, %r8
	shrq	$32, %r8
	addl	%eax, %r8d
	sarl	$31, %eax
	sarl	$7, %r8d
	cmpb	$1, %al
	movl	$2155905153, %eax
	sbbb	$0, %r8b
	imull	%edx, %r10d
	imulq	%rax, %r10
	movzbl	2(%rbx), %eax
	shrq	$39, %r10
	subl	$255, %eax
	imull	%edx, %eax
	movslq	%eax, %r9
	imulq	$-2139062143, %r9, %r9
	shrq	$32, %r9
	addl	%eax, %r9d
	sarl	$31, %eax
	sarl	$7, %r9d
	cmpb	$1, %al
	leaq	3(%r11), %rax
	sbbb	$0, %r9b
	cmpq	$64, %rax
	ja	.L844
	leal	3(%r11), %edx
	leal	1(%r11), %edi
	addl	$2, %esi
	leaq	4(%r11), %rax
.L845:
	movslq	%edi, %rdi
	movslq	%esi, %rsi
	movl	%edx, 80(%rbp)
	movb	%r9b, 16(%rbp,%r11)
	movb	%r10b, 16(%rbp,%rdi)
	movb	%r8b, 16(%rbp,%rsi)
	movzbl	-1(%rbx,%r13), %r8d
	cmpq	$64, %rax
	jbe	.L922
.L849:
	movb	%r8b, 8(%rsp)
	movq	8(%rbp), %rdi
	leaq	16(%rbp), %rsi
	call	*0(%rbp)
	movzbl	8(%rsp), %r8d
	movl	$1, %eax
	xorl	%edx, %edx
	jmp	.L850
	.p2align 4
	.p2align 3
.L920:
	movl	%r14d, %r12d
	movq	%r13, %r14
	movl	40(%rsp), %r13d
.L852:
	cmpl	%r13d, 20(%rsp)
	jg	.L823
	movl	52(%rsp), %ecx
	addl	%ecx, 44(%rsp)
	movq	56(%rsp), %rbx
	movl	44(%rsp), %eax
	addq	%rbx, (%rsp)
	cmpl	48(%rsp), %eax
	jne	.L824
.L822:
	movl	80(%rbp), %edx
	testl	%edx, %edx
	je	.L917
	movq	8(%rbp), %rdi
	leaq	16(%rbp), %rsi
	call	*0(%rbp)
	movl	$0, 80(%rbp)
.L917:
	movl	$1, %r9d
.L816:
	addq	$72, %rsp
	.cfi_remember_state
	.cfi_def_cfa_offset 56
	movl	%r9d, %eax
	popq	%rbx
	.cfi_def_cfa_offset 48
	popq	%rbp
	.cfi_def_cfa_offset 40
	popq	%r12
	.cfi_def_cfa_offset 32
	popq	%r13
	.cfi_def_cfa_offset 24
	popq	%r14
	.cfi_def_cfa_offset 16
	popq	%r15
	.cfi_def_cfa_offset 8
	ret
.L918:
	.cfi_restore_state
	subq	$8, %rsp
	.cfi_def_cfa_offset 136
	movl	%r12d, %r9d
	pushq	%rsi
	.cfi_def_cfa_offset 144
	pushq	%rdx
	.cfi_def_cfa_offset 152
	movl	$-1, %esi
	movl	$-1, %edx
	movl	72(%rsp), %r8d
	pushq	%r8
	.cfi_def_cfa_offset 160
	movl	52(%rsp), %edi
	pushq	%rdi
	.cfi_def_cfa_offset 168
	pushq	$0
	.cfi_def_cfa_offset 176
	pushq	$0
	.cfi_def_cfa_offset 184
	pushq	$0
	.cfi_def_cfa_offset 192
	pushq	$0
	.cfi_def_cfa_offset 200
	pushq	$0
	.cfi_def_cfa_offset 208
	pushq	%rax
	.cfi_def_cfa_offset 216
	leaq	.LC60(%rip), %rax
	pushq	$0
	.cfi_def_cfa_offset 224
	pushq	$0
	.cfi_def_cfa_offset 232
	pushq	%rax
	.cfi_def_cfa_offset 240
	xorl	%eax, %eax
	pushq	$0
	.cfi_def_cfa_offset 248
	pushq	%rcx
	.cfi_def_cfa_offset 256
	movl	%edi, %ecx
	movq	%rbp, %rdi
	pushq	%rbx
	.cfi_def_cfa_offset 264
	pushq	$0
	.cfi_def_cfa_offset 272
	call	stbiw__outfile.constprop.0
	addq	$144, %rsp
	.cfi_def_cfa_offset 128
	movl	%eax, %r9d
	jmp	.L816
	.p2align 4
	.p2align 3
.L836:
	movslq	80(%rbp), %rdi
	movzbl	(%rbx), %r8d
	movzbl	1(%rbx), %r9d
	movzbl	2(%rbx), %r10d
	leaq	3(%rdi), %rax
	movq	%rdi, %r11
	cmpq	$64, %rax
	ja	.L847
	leal	3(%rdi), %edx
	leal	1(%rdi), %esi
	leal	2(%rdi), %eax
.L848:
	movslq	%esi, %rsi
	cltq
	movl	%edx, 80(%rbp)
	movb	%r10b, 16(%rbp,%rdi)
	movb	%r9b, 16(%rbp,%rsi)
	movb	%r8b, 16(%rbp,%rax)
	jmp	.L843
	.p2align 4
	.p2align 3
.L847:
	movq	8(%rbp), %rdi
	movb	%r10b, 32(%rsp)
	movb	%r9b, 24(%rsp)
	leaq	16(%rbp), %rsi
	movb	%r8b, 8(%rsp)
	movl	%r11d, %edx
	call	*0(%rbp)
	movl	$2, %eax
	movl	$1, %esi
	movl	$3, %edx
	movzbl	32(%rsp), %r10d
	movzbl	24(%rsp), %r9d
	xorl	%edi, %edi
	movzbl	8(%rsp), %r8d
	jmp	.L848
	.p2align 4
	.p2align 3
.L841:
	movb	%r8b, 8(%rsp)
	movq	8(%rbp), %rdi
	leaq	16(%rbp), %rsi
	call	*0(%rbp)
	movzbl	8(%rsp), %r8d
	movl	$1, %edx
	xorl	%eax, %eax
	jmp	.L842
	.p2align 4
	.p2align 3
.L826:
	movl	20(%rsp), %edi
	cmpl	%eax, %edi
	jle	.L886
	leal	(%r15,%r12), %ecx
	movq	%rbp, 24(%rsp)
	movl	%r12d, 32(%rsp)
	movl	$2, %r15d
	movslq	%ecx, %rcx
	movl	%edi, %ebp
	addq	(%rsp), %rcx
	movq	%rcx, %r12
	jmp	.L832
	.p2align 4
	.p2align 3
.L831:
	incl	%r15d
	addq	%r14, %r12
	leal	(%r15,%r13), %eax
	cmpl	%eax, %ebp
	jle	.L889
	cmpl	$127, %r15d
	jg	.L889
.L832:
	movq	%r14, %rdx
	movq	%r12, %rsi
	movq	%rbx, %rdi
	call	memcmp@PLT
	testl	%eax, %eax
	je	.L831
	movq	24(%rsp), %rbp
	movl	32(%rsp), %r12d
	leal	127(%r15), %ecx
	addl	%r15d, %r13d
.L830:
	movslq	80(%rbp), %rax
	leaq	1(%rax), %rdx
	movq	%rax, %r8
	cmpq	$64, %rdx
	jbe	.L923
	movb	%cl, 24(%rsp)
	movq	8(%rbp), %rdi
	leaq	16(%rbp), %rsi
	movl	%r8d, %edx
	call	*0(%rbp)
	movl	$1, 80(%rbp)
	movzbl	24(%rsp), %ecx
	movb	%cl, 16(%rbp)
	cmpl	$3, %r12d
	je	.L853
	jg	.L854
	leal	-1(%r12), %eax
	cmpl	$1, %eax
	ja	.L855
	movzbl	(%rbx), %ecx
	movl	$2, %edx
	movl	$1, %eax
.L864:
	movl	%edx, 80(%rbp)
	movb	%cl, 16(%rbp,%rax)
.L860:
	movl	16(%rsp), %ecx
	testl	%ecx, %ecx
	jne	.L852
	movslq	%edx, %rax
	movzbl	-1(%rbx,%r14), %ebx
	incq	%rax
	cmpq	$64, %rax
	jbe	.L924
	movq	8(%rbp), %rdi
	leaq	16(%rbp), %rsi
	call	*0(%rbp)
	movl	$1, %eax
.L872:
	movl	%eax, 80(%rbp)
	movslq	8(%rsp), %rax
	movb	%bl, 16(%rbp,%rax)
	jmp	.L852
	.p2align 4
	.p2align 3
.L884:
	movl	%eax, %r13d
	xorl	%ecx, %ecx
	movl	$1, %r15d
	jmp	.L825
	.p2align 4
	.p2align 3
.L854:
	movl	$4, %eax
	movl	$1, %edx
	cmpl	$4, %r12d
	jne	.L855
.L857:
	movl	16(%rsp), %esi
	movzbl	(%rbx), %ecx
	movzbl	1(%rbx), %r8d
	movzbl	2(%rbx), %r9d
	testl	%esi, %esi
	je	.L862
	movzbl	3(%rbx), %esi
	subl	$255, %ecx
	movzbl	%r8b, %ebx
	imull	%esi, %ecx
	movslq	%ecx, %r15
	imulq	$-2139062143, %r15, %r15
	shrq	$32, %r15
	addl	%ecx, %r15d
	sarl	$31, %ecx
	sarl	$7, %r15d
	cmpb	$1, %cl
	movl	$2155905153, %ecx
	sbbb	$0, %r15b
	imull	%esi, %ebx
	imulq	%rcx, %rbx
	leal	-255(%r9), %ecx
	imull	%ecx, %esi
	shrq	$39, %rbx
	movslq	%esi, %rcx
	imulq	$-2139062143, %rcx, %rcx
	shrq	$32, %rcx
	addl	%esi, %ecx
	sarl	$31, %esi
	sarl	$7, %ecx
	cmpb	$1, %sil
	sbbb	$0, %cl
	cmpq	$64, %rax
	ja	.L865
	leal	3(%rdx), %edi
	leal	1(%rdx), %esi
	leal	2(%rdx), %eax
.L866:
	movslq	%edx, %rdx
	movl	%edi, 80(%rbp)
	cltq
	movb	%cl, 16(%rbp,%rdx)
	movslq	%esi, %rdx
	movb	%bl, 16(%rbp,%rdx)
	movb	%r15b, 16(%rbp,%rax)
	jmp	.L852
	.p2align 4
	.p2align 3
.L923:
	leal	1(%r8), %edx
	movl	%edx, 80(%rbp)
	movb	%cl, 16(%rbp,%rax)
	cmpl	$3, %r12d
	je	.L858
	jg	.L859
	leal	-1(%r12), %ecx
	cmpl	$1, %ecx
	ja	.L860
	movzbl	(%rbx), %ecx
	cmpq	$63, %rax
	jne	.L925
	movb	%cl, 24(%rsp)
	movq	8(%rbp), %rdi
	leaq	16(%rbp), %rsi
	call	*0(%rbp)
	movzbl	24(%rsp), %ecx
	xorl	%eax, %eax
	movl	$1, %edx
	jmp	.L864
	.p2align 4
	.p2align 3
.L859:
	addq	$4, %rax
	cmpl	$4, %r12d
	je	.L857
	jmp	.L860
	.p2align 4
	.p2align 3
.L844:
	leaq	16(%rbp), %r11
	movl	%esi, %edx
	movq	8(%rbp), %rdi
	movl	%r10d, 32(%rsp)
	movq	%r11, %rsi
	movb	%r8b, 24(%rsp)
	movb	%r9b, 8(%rsp)
	call	*0(%rbp)
	movl	$4, %eax
	movl	$2, %esi
	movl	$1, %edi
	movl	32(%rsp), %r10d
	movzbl	24(%rsp), %r8d
	movl	$3, %edx
	xorl	%r11d, %r11d
	movzbl	8(%rsp), %r9d
	jmp	.L845
	.p2align 4
	.p2align 3
.L834:
	movb	%cl, 8(%rsp)
	movq	8(%rbp), %rdi
	leaq	16(%rbp), %rsi
	call	*0(%rbp)
	movzbl	8(%rsp), %ecx
	movl	$1, %edx
	xorl	%eax, %eax
	jmp	.L835
	.p2align 4
	.p2align 3
.L855:
	movl	16(%rsp), %eax
	testl	%eax, %eax
	jne	.L852
	movzbl	-1(%rbx,%r14), %ebx
	movl	$1, 8(%rsp)
.L878:
	movl	8(%rsp), %eax
	incl	%eax
	jmp	.L872
	.p2align 4
	.p2align 3
.L888:
	movq	8(%rsp), %rbx
	movq	24(%rsp), %rbp
	leal	-1(%r15), %ecx
	movl	%eax, %r13d
	movl	32(%rsp), %r12d
	jmp	.L825
	.p2align 4
	.p2align 3
.L889:
	movq	24(%rsp), %rbp
	movl	32(%rsp), %r12d
	leal	127(%r15), %ecx
	movl	%eax, %r13d
	jmp	.L830
	.p2align 4
	.p2align 3
.L858:
	movzbl	(%rbx), %ecx
	movzbl	1(%rbx), %r8d
	addq	$4, %rax
	movzbl	2(%rbx), %r9d
.L862:
	cmpq	$64, %rax
	jbe	.L926
	movq	8(%rbp), %rdi
	movb	%cl, 40(%rsp)
	movb	%r9b, 32(%rsp)
	leaq	16(%rbp), %rsi
	movb	%r8b, 24(%rsp)
	call	*0(%rbp)
	xorl	%eax, %eax
	movl	$2, %esi
	movl	$1, %edi
	movzbl	40(%rsp), %ecx
	movzbl	32(%rsp), %r9d
	movl	$3, %edx
	movzbl	24(%rsp), %r8d
.L870:
	movslq	%edi, %rdi
	movslq	%esi, %rsi
	movl	%edx, 80(%rbp)
	movb	%r9b, 16(%rbp,%rax)
	movb	%r8b, 16(%rbp,%rdi)
	movb	%cl, 16(%rbp,%rsi)
	jmp	.L860
	.p2align 4
	.p2align 3
.L853:
	movzbl	(%rbx), %ecx
	movzbl	1(%rbx), %r8d
	movl	$1, %eax
	movzbl	2(%rbx), %r9d
.L868:
	leal	3(%rax), %edx
	leal	1(%rax), %edi
	leal	2(%rax), %esi
	jmp	.L870
.L924:
	movl	%edx, 8(%rsp)
	jmp	.L878
.L865:
	movq	8(%rbp), %rdi
	movb	%cl, 8(%rsp)
	leaq	16(%rbp), %rsi
	call	*0(%rbp)
	movzbl	8(%rsp), %ecx
	xorl	%edx, %edx
	movl	$2, %eax
	movl	$1, %esi
	movl	$3, %edi
	jmp	.L866
.L926:
	movslq	%edx, %rax
	jmp	.L868
.L885:
	movl	%eax, %r13d
	movl	$1, %ecx
	movl	$2, %r15d
	jmp	.L825
.L886:
	movl	%eax, %r13d
	movl	$-127, %ecx
	jmp	.L830
.L883:
	movl	$1, 52(%rsp)
	movl	$0, 44(%rsp)
	jmp	.L821
.L925:
	movslq	%edx, %rax
	leal	2(%r8), %edx
	jmp	.L864
	.cfi_endproc
.LFE803:
	.size	stbi_write_tga_core, .-stbi_write_tga_core
	.section	.rodata.str1.1
.LC68:
	.string	"bad sizes"
.LC69:
	.string	"bad codelengths"
	.text
	.p2align 4
	.type	stbi__zbuild_huffman, @function
stbi__zbuild_huffman:
.LFB682:
	.cfi_startproc
	pushq	%r15
	.cfi_def_cfa_offset 16
	.cfi_offset 15, -16
	pushq	%r14
	.cfi_def_cfa_offset 24
	.cfi_offset 14, -24
	vpxor	%xmm0, %xmm0, %xmm0
	pushq	%r13
	.cfi_def_cfa_offset 32
	.cfi_offset 13, -32
	pushq	%r12
	.cfi_def_cfa_offset 40
	.cfi_offset 12, -40
	pushq	%rbp
	.cfi_def_cfa_offset 48
	.cfi_offset 6, -48
	pushq	%rbx
	.cfi_def_cfa_offset 56
	.cfi_offset 3, -56
	movl	%edx, %ebp
	movq	%rsi, %rbx
	subq	$184, %rsp
	.cfi_def_cfa_offset 240
	movl	$1024, %edx
	xorl	%esi, %esi
	movq	%fs:40, %rax
	movq	%rax, 168(%rsp)
	xorl	%eax, %eax
	vmovdqa	%xmm0, 96(%rsp)
	vmovdqa	%xmm0, 112(%rsp)
	vmovdqa	%xmm0, 128(%rsp)
	vmovdqa	%xmm0, 144(%rsp)
	movl	$0, 160(%rsp)
	call	memset@PLT
	leal	-1(%rbp), %edx
	movq	%rax, %rcx
	leaq	1(%rbx,%rdx), %rsi
	movq	%rbx, %rax
	.p2align 4
	.p2align 3
.L928:
	movzbl	(%rax), %edx
	incq	%rax
	incl	96(%rsp,%rdx,4)
	cmpq	%rsi, %rax
	jne	.L928
	movl	100(%rsp), %esi
	movl	$0, 96(%rsp)
	cmpl	$2, %esi
	jg	.L929
	movl	104(%rsp), %edx
	cmpl	$4, %edx
	jg	.L929
	movl	108(%rsp), %edi
	cmpl	$8, %edi
	jg	.L929
	movl	112(%rsp), %r8d
	cmpl	$16, %r8d
	jg	.L929
	movl	116(%rsp), %r9d
	cmpl	$32, %r9d
	jg	.L929
	movl	120(%rsp), %r10d
	cmpl	$64, %r10d
	jg	.L929
	movl	124(%rsp), %r11d
	cmpl	$128, %r11d
	jg	.L929
	movl	128(%rsp), %r12d
	cmpl	$256, %r12d
	jg	.L929
	movl	132(%rsp), %r13d
	cmpl	$512, %r13d
	jg	.L929
	movl	136(%rsp), %r14d
	cmpl	$1024, %r14d
	jg	.L929
	movl	140(%rsp), %eax
	movl	%eax, 12(%rsp)
	cmpl	$2048, %eax
	jg	.L929
	movl	144(%rsp), %eax
	movl	%eax, 16(%rsp)
	cmpl	$4096, %eax
	jg	.L929
	movl	148(%rsp), %eax
	movl	%eax, 20(%rsp)
	cmpl	$8192, %eax
	jg	.L929
	movl	152(%rsp), %eax
	movl	%eax, 24(%rsp)
	cmpl	$16384, %eax
	jg	.L929
	movl	156(%rsp), %eax
	movl	%eax, 28(%rsp)
	cmpl	$32768, %eax
	jg	.L929
	movl	%esi, %eax
	movl	$0, 36(%rsp)
	movw	$0, 1026(%rcx)
	sall	$15, %eax
	movw	$0, 1126(%rcx)
	movw	%si, 1128(%rcx)
	movl	%eax, 1060(%rcx)
	leal	(%rsi,%rsi), %eax
	movl	%eax, 40(%rsp)
	movw	%ax, 1028(%rcx)
	addl	%edx, %eax
	testl	%edx, %edx
	je	.L932
	cmpl	$4, %eax
	jg	.L933
.L932:
	movl	%eax, %r15d
	addl	%esi, %edx
	addl	%eax, %eax
	sall	$14, %r15d
	movl	%eax, 44(%rsp)
	movw	%ax, 1030(%rcx)
	addl	%edi, %eax
	movl	%r15d, 1064(%rcx)
	movw	%dx, 1130(%rcx)
	testl	%edi, %edi
	je	.L934
	cmpl	$8, %eax
	jg	.L933
.L934:
	movl	%eax, %esi
	addl	%edi, %edx
	addl	%eax, %eax
	sall	$13, %esi
	movl	%eax, 48(%rsp)
	movw	%ax, 1032(%rcx)
	addl	%r8d, %eax
	movl	%esi, 1068(%rcx)
	movw	%dx, 1132(%rcx)
	testl	%r8d, %r8d
	je	.L935
	cmpl	$16, %eax
	jg	.L933
.L935:
	movl	%eax, %esi
	addl	%r8d, %edx
	addl	%eax, %eax
	sall	$12, %esi
	movl	%eax, 52(%rsp)
	movw	%ax, 1034(%rcx)
	addl	%r9d, %eax
	movl	%esi, 1072(%rcx)
	movw	%dx, 1134(%rcx)
	testl	%r9d, %r9d
	je	.L936
	cmpl	$32, %eax
	jg	.L933
.L936:
	movl	%eax, %esi
	addl	%r9d, %edx
	addl	%eax, %eax
	sall	$11, %esi
	movl	%eax, 56(%rsp)
	movw	%ax, 1036(%rcx)
	addl	%r10d, %eax
	movl	%esi, 1076(%rcx)
	movw	%dx, 1136(%rcx)
	testl	%r10d, %r10d
	je	.L937
	cmpl	$64, %eax
	jg	.L933
.L937:
	movl	%eax, %esi
	addl	%r10d, %edx
	addl	%eax, %eax
	sall	$10, %esi
	movl	%eax, 60(%rsp)
	movw	%ax, 1038(%rcx)
	addl	%r11d, %eax
	movl	%esi, 1080(%rcx)
	movw	%dx, 1138(%rcx)
	testl	%r11d, %r11d
	je	.L938
	cmpl	$128, %eax
	jg	.L933
.L938:
	movl	%eax, %esi
	addl	%r11d, %edx
	addl	%eax, %eax
	sall	$9, %esi
	movl	%eax, 64(%rsp)
	movw	%ax, 1040(%rcx)
	addl	%r12d, %eax
	movl	%esi, 1084(%rcx)
	movw	%dx, 1140(%rcx)
	testl	%r12d, %r12d
	je	.L939
	cmpl	$256, %eax
	jg	.L933
.L939:
	movl	%eax, %esi
	addl	%r12d, %edx
	addl	%eax, %eax
	sall	$8, %esi
	movl	%eax, 68(%rsp)
	movw	%ax, 1042(%rcx)
	addl	%r13d, %eax
	movl	%esi, 1088(%rcx)
	movw	%dx, 1142(%rcx)
	testl	%r13d, %r13d
	je	.L940
	cmpl	$512, %eax
	jg	.L933
.L940:
	movl	%eax, %esi
	addl	%r13d, %edx
	addl	%eax, %eax
	sall	$7, %esi
	movl	%eax, 72(%rsp)
	movw	%ax, 1044(%rcx)
	addl	%r14d, %eax
	movl	%esi, 1092(%rcx)
	movw	%dx, 1144(%rcx)
	testl	%r14d, %r14d
	je	.L941
	cmpl	$1024, %eax
	jg	.L933
.L941:
	movl	12(%rsp), %edi
	movl	%eax, %esi
	addl	%r14d, %edx
	addl	%eax, %eax
	sall	$6, %esi
	movl	%eax, 76(%rsp)
	movw	%ax, 1046(%rcx)
	movl	%esi, 1096(%rcx)
	movw	%dx, 1146(%rcx)
	addl	%edi, %eax
	testl	%edi, %edi
	je	.L942
	cmpl	$2048, %eax
	jg	.L933
.L942:
	addl	12(%rsp), %edx
	movl	16(%rsp), %edi
	movl	%eax, %esi
	addl	%eax, %eax
	sall	$5, %esi
	movl	%eax, 80(%rsp)
	movw	%ax, 1048(%rcx)
	movl	%esi, 1100(%rcx)
	addl	%edi, %eax
	movw	%dx, 1148(%rcx)
	testl	%edi, %edi
	je	.L943
	cmpl	$4096, %eax
	jg	.L933
.L943:
	addl	16(%rsp), %edx
	movl	20(%rsp), %edi
	movl	%eax, %esi
	addl	%eax, %eax
	sall	$4, %esi
	movl	%eax, 84(%rsp)
	movw	%ax, 1050(%rcx)
	movl	%esi, 1104(%rcx)
	addl	%edi, %eax
	movw	%dx, 1150(%rcx)
	testl	%edi, %edi
	je	.L944
	cmpl	$8192, %eax
	jg	.L933
.L944:
	addl	20(%rsp), %edx
	movl	24(%rsp), %edi
	leal	0(,%rax,8), %esi
	addl	%eax, %eax
	movl	%eax, 88(%rsp)
	movw	%ax, 1052(%rcx)
	movl	%esi, 1108(%rcx)
	addl	%edi, %eax
	movw	%dx, 1152(%rcx)
	testl	%edi, %edi
	je	.L945
	cmpl	$16384, %eax
	jg	.L933
.L945:
	addl	24(%rsp), %edx
	movl	28(%rsp), %edi
	leal	0(,%rax,4), %esi
	addl	%eax, %eax
	movl	%eax, 92(%rsp)
	movw	%ax, 1054(%rcx)
	movl	%esi, 1112(%rcx)
	addl	%edi, %eax
	movw	%dx, 1154(%rcx)
	testl	%edi, %edi
	jne	.L1001
.L946:
	addl	%eax, %eax
	movl	$65536, 1120(%rcx)
	xorl	%edx, %edx
	movl	$1, %r10d
	movl	%eax, 1116(%rcx)
	movl	$16, %r9d
	jmp	.L950
	.p2align 4
	.p2align 3
.L948:
	incl	%edi
	movl	%edi, 32(%rsp,%r8,4)
.L947:
	incq	%rdx
	cmpq	%rdx, %rbp
	je	.L1002
.L950:
	movzbl	(%rbx,%rdx), %r12d
	testl	%r12d, %r12d
	je	.L947
	movslq	%r12d, %r8
	movl	32(%rsp,%r8,4), %edi
	movzwl	1024(%rcx,%r8,2), %r11d
	movl	%edi, %eax
	subl	%r11d, %eax
	movzwl	1124(%rcx,%r8,2), %r11d
	addl	%r11d, %eax
	cltq
	movb	%r12b, 1156(%rcx,%rax)
	movw	%dx, 1444(%rcx,%rax,2)
	cmpl	$9, %r12d
	jg	.L948
	movl	%edi, %r13d
	leal	(%rdi,%rdi), %eax
	movl	%r12d, %r11d
	shlx	%r12d, %r10d, %esi
	sarl	%r13d
	andl	$43690, %eax
	sall	$9, %r11d
	movslq	%esi, %rsi
	andl	$21845, %r13d
	orl	%edx, %r11d
	orl	%eax, %r13d
	movl	%r13d, %eax
	sall	$2, %r13d
	sarl	$2, %eax
	andl	$52428, %r13d
	andl	$13107, %eax
	orl	%r13d, %eax
	movl	%eax, %r13d
	sall	$4, %eax
	sarl	$4, %r13d
	andl	$61680, %eax
	andl	$3855, %r13d
	orl	%eax, %r13d
	movl	%r13d, %eax
	sall	$8, %r13d
	movzwl	%r13w, %r13d
	sarl	$8, %eax
	orl	%r13d, %eax
	movl	%r9d, %r13d
	subl	%r12d, %r13d
	sarx	%r13d, %eax, %eax
	cltq
	.p2align 4
	.p2align 3
.L949:
	movw	%r11w, (%rcx,%rax,2)
	addq	%rsi, %rax
	cmpl	$511, %eax
	jle	.L949
	jmp	.L948
	.p2align 4
	.p2align 3
.L929:
	leaq	.LC68(%rip), %rax
	movq	%rax, %fs:stbi__g_failure_reason@tpoff
	xorl	%eax, %eax
.L927:
	movq	168(%rsp), %rdx
	subq	%fs:40, %rdx
	jne	.L1003
	addq	$184, %rsp
	.cfi_remember_state
	.cfi_def_cfa_offset 56
	popq	%rbx
	.cfi_def_cfa_offset 48
	popq	%rbp
	.cfi_def_cfa_offset 40
	popq	%r12
	.cfi_def_cfa_offset 32
	popq	%r13
	.cfi_def_cfa_offset 24
	popq	%r14
	.cfi_def_cfa_offset 16
	popq	%r15
	.cfi_def_cfa_offset 8
	ret
	.p2align 4
	.p2align 3
.L1002:
	.cfi_restore_state
	movl	$1, %eax
	jmp	.L927
	.p2align 4
	.p2align 3
.L1001:
	cmpl	$32768, %eax
	jle	.L946
	.p2align 4
	.p2align 3
.L933:
	leaq	.LC69(%rip), %rax
	movq	%rax, %fs:stbi__g_failure_reason@tpoff
	xorl	%eax, %eax
	jmp	.L927
.L1003:
	call	__stack_chk_fail@PLT
	.cfi_endproc
.LFE682:
	.size	stbi__zbuild_huffman, .-stbi__zbuild_huffman
	.p2align 4
	.type	stbi__zhuffman_decode, @function
stbi__zhuffman_decode:
.LFB688:
	.cfi_startproc
	movq	%rdi, %rcx
	movq	%rsi, %rdi
	movl	16(%rcx), %edx
	cmpl	$15, %edx
	jg	.L1005
	movq	8(%rcx), %r8
	cmpq	%r8, (%rcx)
	jnb	.L1016
	movl	20(%rcx), %esi
	jmp	.L1012
	.p2align 4
	.p2align 3
.L1008:
	movq	(%rcx), %rax
	cmpq	%rax, %r8
	jbe	.L1010
	leaq	1(%rax), %r9
	movq	%r9, (%rcx)
	movzbl	(%rax), %eax
	shlx	%edx, %eax, %eax
	orl	%eax, %esi
.L1010:
	addl	$8, %edx
	movl	%esi, 20(%rcx)
	movl	%edx, 16(%rcx)
	cmpl	$24, %edx
	jg	.L1009
.L1012:
	shrx	%edx, %esi, %eax
	testl	%eax, %eax
	je	.L1008
	movq	%r8, (%rcx)
	jmp	.L1009
	.p2align 4
	.p2align 3
.L1005:
	movl	20(%rcx), %esi
.L1009:
	movl	%esi, %eax
	andl	$511, %eax
	movzwl	(%rdi,%rax,2), %r8d
	movl	%r8d, %eax
	testl	%r8d, %r8d
	je	.L1013
	sarl	$9, %r8d
	andl	$511, %eax
	shrx	%r8d, %esi, %esi
	subl	%r8d, %edx
	movl	%esi, 20(%rcx)
	movl	%edx, 16(%rcx)
	ret
	.p2align 4
	.p2align 3
.L1013:
	movl	%esi, %r8d
	leal	(%rsi,%rsi), %eax
	sarl	%r8d
	andl	$43690, %eax
	andl	$21845, %r8d
	orl	%eax, %r8d
	movl	%r8d, %eax
	sall	$2, %r8d
	sarl	$2, %eax
	andl	$52428, %r8d
	andl	$13107, %eax
	orl	%r8d, %eax
	movl	%eax, %r8d
	sall	$4, %eax
	sarl	$4, %r8d
	andl	$61680, %eax
	andl	$3855, %r8d
	orl	%eax, %r8d
	movl	%r8d, %eax
	sall	$8, %r8d
	sarl	$8, %eax
	movzwl	%r8w, %r8d
	orl	%r8d, %eax
	cmpl	1096(%rdi), %eax
	jl	.L1017
	cmpl	1100(%rdi), %eax
	jl	.L1018
	cmpl	1104(%rdi), %eax
	jl	.L1019
	cmpl	1108(%rdi), %eax
	jl	.L1020
	cmpl	1112(%rdi), %eax
	jl	.L1021
	movl	$15, %r8d
	cmpl	1116(%rdi), %eax
	jl	.L1015
.L1016:
	movl	$-1, %eax
	ret
	.p2align 4
	.p2align 3
.L1018:
	movl	$11, %r8d
.L1015:
	movl	$16, %r9d
	subl	%r8d, %r9d
.L1014:
	sarx	%r9d, %eax, %eax
	movslq	%r8d, %r9
	movzwl	1024(%rdi,%r9,2), %r10d
	movzwl	1124(%rdi,%r9,2), %r9d
	subl	%r10d, %eax
	addl	%r9d, %eax
	cmpl	$287, %eax
	jg	.L1016
	cltq
	movzbl	1156(%rdi,%rax), %r9d
	cmpl	%r8d, %r9d
	jne	.L1016
	shrx	%r8d, %esi, %esi
	subl	%r8d, %edx
	movzwl	1444(%rdi,%rax,2), %eax
	movl	%esi, 20(%rcx)
	movl	%edx, 16(%rcx)
	ret
	.p2align 4
	.p2align 3
.L1017:
	movl	$6, %r9d
	movl	$10, %r8d
	jmp	.L1014
	.p2align 4
	.p2align 3
.L1019:
	movl	$12, %r8d
	jmp	.L1015
.L1020:
	movl	$13, %r8d
	jmp	.L1015
.L1021:
	movl	$14, %r8d
	jmp	.L1015
	.cfi_endproc
.LFE688:
	.size	stbi__zhuffman_decode, .-stbi__zhuffman_decode
	.p2align 4
	.type	stbi__convert_format, @function
stbi__convert_format:
.LFB635:
	.cfi_startproc
	pushq	%r15
	.cfi_def_cfa_offset 16
	.cfi_offset 15, -16
	pushq	%r14
	.cfi_def_cfa_offset 24
	.cfi_offset 14, -24
	pushq	%r13
	.cfi_def_cfa_offset 32
	.cfi_offset 13, -32
	pushq	%r12
	.cfi_def_cfa_offset 40
	.cfi_offset 12, -40
	pushq	%rbp
	.cfi_def_cfa_offset 48
	.cfi_offset 6, -48
	pushq	%rbx
	.cfi_def_cfa_offset 56
	.cfi_offset 3, -56
	movq	%rdi, %rbp
	subq	$200, %rsp
	.cfi_def_cfa_offset 256
	movl	%r8d, 4(%rsp)
	cmpl	%esi, %edx
	je	.L1087
	leal	-1(%rdx), %eax
	movl	%edx, %r13d
	cmpl	$3, %eax
	ja	.L1573
	testl	%ecx, %ecx
	js	.L1027
	leal	-1(%rcx), %ebx
	je	.L1026
	movl	$2147483647, %eax
	cltd
	idivl	%ecx
	cmpl	%eax, %r13d
	jg	.L1027
.L1026:
	movl	4(%rsp), %edi
	testl	%edi, %edi
	js	.L1027
	movl	%ecx, %r11d
	imull	%r13d, %r11d
	movl	%r11d, 8(%rsp)
	testl	%edi, %edi
	je	.L1028
	movl	$2147483647, %eax
	cltd
	idivl	%edi
	cmpl	%eax, %r11d
	jg	.L1027
	imull	8(%rsp), %edi
	movl	%ecx, 12(%rsp)
	movl	%esi, (%rsp)
	movslq	%edi, %rdi
	call	malloc@PLT
	movl	(%rsp), %esi
	testq	%rax, %rax
	movl	12(%rsp), %ecx
	movq	%rax, %r12
	je	.L1027
	leal	-2(%rcx), %eax
	movl	%esi, %r15d
	movl	$1, %edi
	vmovdqa	.LC83(%rip), %xmm7
	imull	%ecx, %r15d
	cmpl	$-1, %eax
	vmovdqa	.LC86(%rip), %xmm15
	leal	-10(%r13,%rsi,8), %r14d
	cmovge	%ecx, %edi
	setl	%al
	cmpl	$15, %ebx
	movl	%ebx, (%rsp)
	setbe	%dl
	leal	-1(%rdi), %ecx
	movl	%edi, 12(%rsp)
	orl	%eax, %edx
	movb	%dl, 35(%rsp)
	movl	%ecx, %edx
	andl	$-16, %ecx
	shrl	$4, %edx
	movq	%rcx, 72(%rsp)
	decl	%edx
	movq	%rdx, %r11
	vpsrldq	$8, %xmm7, %xmm14
	vmovdqa	.LC84(%rip), %xmm7
	vpmovzxbw	%xmm14, %xmm14
	salq	$6, %r11
	movq	%r11, 88(%rsp)
	movl	%ebx, %r11d
	subl	%ecx, %r11d
	movl	%r11d, 36(%rsp)
	leaq	0(,%rcx,4), %r11
	movq	%r11, 80(%rsp)
	leaq	(%rcx,%rcx), %r11
	movq	%r11, 112(%rsp)
	addq	%rcx, %r11
	cmpl	$14, %ebx
	setbe	%cl
	movq	%r11, 120(%rsp)
	xorl	%r9d, %r9d
	xorl	%r8d, %r8d
	orl	%eax, %ecx
	movl	%edi, %eax
	vpsrldq	$8, %xmm7, %xmm0
	vpmovzxbw	%xmm0, %xmm7
	shrl	$4, %eax
	movb	%cl, 34(%rsp)
	vmovdqa	%xmm7, 160(%rsp)
	vmovdqa	.LC85(%rip), %xmm7
	decl	%eax
	andl	$-16, %edi
	movq	%rax, %rcx
	movl	%edi, 16(%rsp)
	movq	%rdi, 48(%rsp)
	salq	$6, %rcx
	movq	%rcx, 96(%rsp)
	movl	%ebx, %ecx
	subl	%edi, %ecx
	movl	%ecx, 20(%rsp)
	leaq	0(,%rdi,4), %rcx
	movq	%rcx, 56(%rsp)
	leaq	(%rdi,%rdi), %rcx
	movq	%rcx, 24(%rsp)
	addq	%rdi, %rcx
	movq	%rax, %rdi
	incq	%rax
	salq	$5, %rdi
	salq	$4, %rax
	vpsrldq	$8, %xmm7, %xmm0
	vpmovzxbw	%xmm0, %xmm7
	movq	%rdi, 104(%rsp)
	leaq	1(%rdx), %rdi
	movq	%rcx, 40(%rsp)
	movq	%rdi, 152(%rsp)
	salq	$4, %rdi
	movq	%rax, 64(%rsp)
	movq	%rdi, 144(%rsp)
	vmovdqa	%xmm7, 176(%rsp)
	xorl	%edi, %edi
	.p2align 4
	.p2align 3
.L1084:
	movl	%r8d, %r11d
	movl	%r9d, %r10d
	leaq	0(%rbp,%r11), %rcx
	leaq	(%r12,%r10), %rax
	cmpl	$25, %r14d
	ja	.L1030
	leaq	.L1032(%rip), %rsi
	movl	%r14d, %edx
	movslq	(%rsi,%rdx,4), %rdx
	addq	%rsi, %rdx
	notrack jmp	*%rdx
	.section	.rodata
	.align 4
	.align 4
.L1032:
	.long	.L1043-.L1032
	.long	.L1042-.L1032
	.long	.L1041-.L1032
	.long	.L1030-.L1032
	.long	.L1030-.L1032
	.long	.L1030-.L1032
	.long	.L1030-.L1032
	.long	.L1040-.L1032
	.long	.L1030-.L1032
	.long	.L1039-.L1032
	.long	.L1038-.L1032
	.long	.L1030-.L1032
	.long	.L1030-.L1032
	.long	.L1030-.L1032
	.long	.L1030-.L1032
	.long	.L1037-.L1032
	.long	.L1036-.L1032
	.long	.L1030-.L1032
	.long	.L1035-.L1032
	.long	.L1030-.L1032
	.long	.L1030-.L1032
	.long	.L1030-.L1032
	.long	.L1030-.L1032
	.long	.L1034-.L1032
	.long	.L1033-.L1032
	.long	.L1031-.L1032
	.text
.L1028:
	xorl	%edi, %edi
	call	malloc@PLT
	movq	%rax, %r12
	testq	%rax, %rax
	jne	.L1086
	.p2align 4
	.p2align 3
.L1027:
	movq	%rbp, %rdi
	xorl	%r12d, %r12d
	call	free@PLT
	leaq	.LC16(%rip), %rax
	movq	%rax, %fs:stbi__g_failure_reason@tpoff
.L1022:
	addq	$200, %rsp
	.cfi_remember_state
	.cfi_def_cfa_offset 56
	movq	%r12, %rax
	popq	%rbx
	.cfi_def_cfa_offset 48
	popq	%rbp
	.cfi_def_cfa_offset 40
	popq	%r12
	.cfi_def_cfa_offset 32
	popq	%r13
	.cfi_def_cfa_offset 24
	popq	%r14
	.cfi_def_cfa_offset 16
	popq	%r15
	.cfi_def_cfa_offset 8
	ret
	.p2align 4
	.p2align 3
.L1087:
	.cfi_restore_state
	movq	%rdi, %r12
	jmp	.L1022
	.p2align 4
	.p2align 3
.L1031:
	movl	(%rsp), %r11d
	testl	%r11d, %r11d
	js	.L1044
	cmpb	$0, 35(%rsp)
	jne	.L1098
	vmovdqa	.LC87(%rip), %xmm7
	vmovdqa	.LC88(%rip), %xmm6
	movq	%rcx, %rdx
	movq	%rax, %rsi
	vmovdqa	.LC89(%rip), %xmm5
	vmovdqa	.LC90(%rip), %xmm4
	vmovdqa	.LC91(%rip), %xmm3
	movq	88(%rsp), %rbx
	leaq	64(%rcx,%rbx), %r10
	movl	%r11d, %ebx
	.p2align 4
	.p2align 3
.L1083:
	vmovdqu	32(%rdx), %xmm2
	vmovdqu	48(%rdx), %xmm1
	addq	$64, %rdx
	addq	$48, %rsi
	vmovdqu	-48(%rdx), %xmm0
	vpshufb	%xmm15, %xmm2, %xmm8
	vpshufb	%xmm7, %xmm1, %xmm1
	vpor	%xmm1, %xmm8, %xmm8
	vmovdqu	-64(%rdx), %xmm1
	vpshufb	%xmm5, %xmm0, %xmm9
	vpshufb	%xmm3, %xmm2, %xmm2
	vpshufb	%xmm4, %xmm0, %xmm0
	vmovdqu	%xmm8, -16(%rsi)
	vpor	%xmm2, %xmm0, %xmm0
	vmovdqu	%xmm0, -32(%rsi)
	vpshufb	%xmm6, %xmm1, %xmm1
	vpor	%xmm9, %xmm1, %xmm1
	vmovdqu	%xmm1, -48(%rsi)
	cmpq	%rdx, %r10
	jne	.L1083
	addq	80(%rsp), %rcx
	movl	%ebx, (%rsp)
	addq	120(%rsp), %rax
	movl	36(%rsp), %edx
.L1082:
	movzbl	(%rcx), %esi
	movb	%sil, (%rax)
	movzbl	1(%rcx), %esi
	movb	%sil, 1(%rax)
	movzbl	2(%rcx), %esi
	movb	%sil, 2(%rax)
	testl	%edx, %edx
	je	.L1044
	movzbl	4(%rcx), %esi
	movb	%sil, 3(%rax)
	movzbl	5(%rcx), %esi
	movb	%sil, 4(%rax)
	movzbl	6(%rcx), %esi
	movb	%sil, 5(%rax)
	cmpl	$1, %edx
	je	.L1044
	movzbl	8(%rcx), %esi
	movb	%sil, 6(%rax)
	movzbl	9(%rcx), %esi
	movb	%sil, 7(%rax)
	movzbl	10(%rcx), %esi
	movb	%sil, 8(%rax)
	cmpl	$2, %edx
	je	.L1044
	movzbl	12(%rcx), %esi
	movb	%sil, 9(%rax)
	movzbl	13(%rcx), %esi
	movb	%sil, 10(%rax)
	movzbl	14(%rcx), %esi
	movb	%sil, 11(%rax)
	cmpl	$3, %edx
	je	.L1044
	movzbl	16(%rcx), %esi
	movb	%sil, 12(%rax)
	movzbl	17(%rcx), %esi
	movb	%sil, 13(%rax)
	movzbl	18(%rcx), %esi
	movb	%sil, 14(%rax)
	cmpl	$4, %edx
	je	.L1044
	movzbl	20(%rcx), %esi
	movb	%sil, 15(%rax)
	movzbl	21(%rcx), %esi
	movb	%sil, 16(%rax)
	movzbl	22(%rcx), %esi
	movb	%sil, 17(%rax)
	cmpl	$5, %edx
	je	.L1044
	movzbl	24(%rcx), %esi
	movb	%sil, 18(%rax)
	movzbl	25(%rcx), %esi
	movb	%sil, 19(%rax)
	movzbl	26(%rcx), %esi
	movb	%sil, 20(%rax)
	cmpl	$6, %edx
	je	.L1044
	movzbl	28(%rcx), %esi
	movb	%sil, 21(%rax)
	movzbl	29(%rcx), %esi
	movb	%sil, 22(%rax)
	movzbl	30(%rcx), %esi
	movb	%sil, 23(%rax)
	cmpl	$7, %edx
	je	.L1044
	movzbl	32(%rcx), %esi
	movb	%sil, 24(%rax)
	movzbl	33(%rcx), %esi
	movb	%sil, 25(%rax)
	movzbl	34(%rcx), %esi
	movb	%sil, 26(%rax)
	cmpl	$8, %edx
	je	.L1044
	movzbl	36(%rcx), %esi
	movb	%sil, 27(%rax)
	movzbl	37(%rcx), %esi
	movb	%sil, 28(%rax)
	movzbl	38(%rcx), %esi
	movb	%sil, 29(%rax)
	cmpl	$9, %edx
	je	.L1044
	movzbl	40(%rcx), %esi
	movb	%sil, 30(%rax)
	movzbl	41(%rcx), %esi
	movb	%sil, 31(%rax)
	movzbl	42(%rcx), %esi
	movb	%sil, 32(%rax)
	cmpl	$10, %edx
	je	.L1044
	movzbl	44(%rcx), %esi
	movb	%sil, 33(%rax)
	movzbl	45(%rcx), %esi
	movb	%sil, 34(%rax)
	movzbl	46(%rcx), %esi
	movb	%sil, 35(%rax)
	cmpl	$11, %edx
	je	.L1044
	movzbl	48(%rcx), %esi
	movb	%sil, 36(%rax)
	movzbl	49(%rcx), %esi
	movb	%sil, 37(%rax)
	movzbl	50(%rcx), %esi
	movb	%sil, 38(%rax)
	cmpl	$12, %edx
	je	.L1044
	movzbl	52(%rcx), %esi
	movb	%sil, 39(%rax)
	movzbl	53(%rcx), %esi
	movb	%sil, 40(%rax)
	movzbl	54(%rcx), %esi
	movb	%sil, 41(%rax)
	cmpl	$13, %edx
	je	.L1044
	movzbl	56(%rcx), %esi
	movb	%sil, 42(%rax)
	movzbl	57(%rcx), %esi
	movb	%sil, 43(%rax)
	movzbl	58(%rcx), %esi
	movb	%sil, 44(%rax)
	cmpl	$14, %edx
	je	.L1044
	movzbl	60(%rcx), %edx
	movb	%dl, 45(%rax)
	movzbl	61(%rcx), %edx
	movb	%dl, 46(%rax)
	movzbl	62(%rcx), %edx
	movb	%dl, 47(%rax)
	.p2align 4
	.p2align 3
.L1044:
	addl	8(%rsp), %r9d
	incl	%edi
	addl	%r15d, %r8d
	cmpl	%edi, 4(%rsp)
	jg	.L1084
.L1086:
	movq	%rbp, %rdi
	call	free@PLT
	jmp	.L1022
	.p2align 4
	.p2align 3
.L1033:
	movl	(%rsp), %r11d
	testl	%r11d, %r11d
	js	.L1044
	cmpb	$0, 34(%rsp)
	jne	.L1097
	vmovdqa	.LC83(%rip), %xmm7
	vmovdqa	.LC2(%rip), %xmm0
	movq	%rcx, %rdx
	movq	%rax, %rsi
	vmovdqa	160(%rsp), %xmm6
	movq	96(%rsp), %rbx
	leaq	64(%rcx,%rbx), %r10
	movl	%r11d, %ebx
	vpmovzxbw	%xmm7, %xmm5
	vmovdqa	.LC84(%rip), %xmm7
	vpmovzxbw	%xmm7, %xmm4
	vmovdqa	.LC85(%rip), %xmm7
	vpmovzxbw	%xmm7, %xmm3
	vmovdqa	176(%rsp), %xmm7
	.p2align 4
	.p2align 3
.L1079:
	vpand	16(%rdx), %xmm0, %xmm1
	vpand	(%rdx), %xmm0, %xmm9
	addq	$64, %rdx
	addq	$32, %rsi
	vmovdqu	-64(%rdx), %xmm2
	vpand	-32(%rdx), %xmm0, %xmm10
	vpackuswb	%xmm1, %xmm9, %xmm9
	vmovdqu	-48(%rdx), %xmm1
	vpsrlw	$8, %xmm2, %xmm2
	vpsrlw	$8, %xmm1, %xmm1
	vpackuswb	%xmm1, %xmm2, %xmm2
	vpand	-16(%rdx), %xmm0, %xmm1
	vpackuswb	%xmm1, %xmm10, %xmm10
	vmovdqu	-32(%rdx), %xmm1
	vpand	%xmm10, %xmm0, %xmm11
	vpsrlw	$8, %xmm10, %xmm10
	vpsrlw	$8, %xmm1, %xmm8
	vmovdqu	-16(%rdx), %xmm1
	vpsrlw	$8, %xmm1, %xmm1
	vpackuswb	%xmm1, %xmm8, %xmm8
	vpand	%xmm9, %xmm0, %xmm1
	vpsrlw	$8, %xmm9, %xmm9
	vpackuswb	%xmm11, %xmm1, %xmm1
	vpackuswb	%xmm10, %xmm9, %xmm9
	vpand	%xmm8, %xmm0, %xmm11
	vpand	%xmm2, %xmm0, %xmm10
	vpackuswb	%xmm11, %xmm10, %xmm10
	vpsrlw	$8, %xmm8, %xmm8
	vpsrlw	$8, %xmm2, %xmm2
	vpackuswb	%xmm8, %xmm2, %xmm2
	vpmovzxbw	%xmm10, %xmm11
	vpmovzxbw	%xmm1, %xmm8
	vpsrldq	$8, %xmm10, %xmm10
	vpsrldq	$8, %xmm1, %xmm1
	vpmullw	%xmm4, %xmm11, %xmm11
	vpmovzxbw	%xmm1, %xmm1
	vpmovzxbw	%xmm10, %xmm10
	vpmullw	%xmm5, %xmm8, %xmm8
	vpmullw	%xmm14, %xmm1, %xmm1
	vpaddw	%xmm11, %xmm8, %xmm8
	vpmovzxbw	%xmm9, %xmm11
	vpsrldq	$8, %xmm9, %xmm9
	vpmovzxbw	%xmm9, %xmm9
	vpmullw	%xmm6, %xmm10, %xmm10
	vpmullw	%xmm3, %xmm11, %xmm11
	vpaddw	%xmm10, %xmm1, %xmm1
	vpmullw	%xmm7, %xmm9, %xmm9
	vpaddw	%xmm11, %xmm8, %xmm8
	vpsrlw	$8, %xmm8, %xmm8
	vpand	%xmm8, %xmm0, %xmm8
	vpaddw	%xmm9, %xmm1, %xmm1
	vpsrlw	$8, %xmm1, %xmm1
	vpand	%xmm1, %xmm0, %xmm1
	vpackuswb	%xmm1, %xmm8, %xmm8
	vpunpcklbw	%xmm2, %xmm8, %xmm1
	vpunpckhbw	%xmm2, %xmm8, %xmm8
	vmovdqu	%xmm1, -32(%rsi)
	vmovdqu	%xmm8, -16(%rsi)
	cmpq	%rdx, %r10
	jne	.L1079
	movl	%ebx, (%rsp)
	addq	56(%rsp), %rcx
	addq	24(%rsp), %rax
	movl	12(%rsp), %edx
	cmpl	%edx, 16(%rsp)
	je	.L1044
	movl	20(%rsp), %edx
.L1078:
	movzbl	(%rcx), %esi
	movzbl	1(%rcx), %r10d
	imull	$77, %esi, %esi
	imull	$150, %r10d, %r10d
	addl	%r10d, %esi
	movzbl	2(%rcx), %r10d
	imull	$29, %r10d, %r10d
	addl	%r10d, %esi
	movl	%esi, %ebx
	movb	%bh, (%rax)
	movzbl	3(%rcx), %esi
	movb	%sil, 1(%rax)
	testl	%edx, %edx
	je	.L1044
	movzbl	4(%rcx), %esi
	movzbl	5(%rcx), %r10d
	imull	$77, %esi, %esi
	imull	$150, %r10d, %r10d
	addl	%r10d, %esi
	movzbl	6(%rcx), %r10d
	imull	$29, %r10d, %r10d
	addl	%r10d, %esi
	movl	%esi, %ebx
	movb	%bh, 2(%rax)
	movzbl	7(%rcx), %esi
	movb	%sil, 3(%rax)
	cmpl	$1, %edx
	je	.L1044
	movzbl	8(%rcx), %esi
	movzbl	9(%rcx), %r10d
	imull	$77, %esi, %esi
	imull	$150, %r10d, %r10d
	addl	%r10d, %esi
	movzbl	10(%rcx), %r10d
	imull	$29, %r10d, %r10d
	addl	%r10d, %esi
	movl	%esi, %ebx
	movb	%bh, 4(%rax)
	movzbl	11(%rcx), %esi
	movb	%sil, 5(%rax)
	cmpl	$2, %edx
	je	.L1044
	movzbl	12(%rcx), %esi
	movzbl	13(%rcx), %r10d
	imull	$77, %esi, %esi
	imull	$150, %r10d, %r10d
	addl	%r10d, %esi
	movzbl	14(%rcx), %r10d
	imull	$29, %r10d, %r10d
	addl	%r10d, %esi
	movl	%esi, %ebx
	movb	%bh, 6(%rax)
	movzbl	15(%rcx), %esi
	movb	%sil, 7(%rax)
	cmpl	$3, %edx
	je	.L1044
	movzbl	16(%rcx), %esi
	movzbl	17(%rcx), %r10d
	imull	$77, %esi, %esi
	imull	$150, %r10d, %r10d
	addl	%r10d, %esi
	movzbl	18(%rcx), %r10d
	imull	$29, %r10d, %r10d
	addl	%r10d, %esi
	movl	%esi, %ebx
	movb	%bh, 8(%rax)
	movzbl	19(%rcx), %esi
	movb	%sil, 9(%rax)
	cmpl	$4, %edx
	je	.L1044
	movzbl	20(%rcx), %esi
	movzbl	21(%rcx), %r10d
	imull	$77, %esi, %esi
	imull	$150, %r10d, %r10d
	addl	%r10d, %esi
	movzbl	22(%rcx), %r10d
	imull	$29, %r10d, %r10d
	addl	%r10d, %esi
	movl	%esi, %ebx
	movb	%bh, 10(%rax)
	movzbl	23(%rcx), %esi
	movb	%sil, 11(%rax)
	cmpl	$5, %edx
	je	.L1044
	movzbl	24(%rcx), %esi
	movzbl	25(%rcx), %r10d
	imull	$77, %esi, %esi
	imull	$150, %r10d, %r10d
	addl	%r10d, %esi
	movzbl	26(%rcx), %r10d
	imull	$29, %r10d, %r10d
	addl	%r10d, %esi
	movl	%esi, %ebx
	movb	%bh, 12(%rax)
	movzbl	27(%rcx), %esi
	movb	%sil, 13(%rax)
	cmpl	$6, %edx
	je	.L1044
	movzbl	28(%rcx), %esi
	movzbl	29(%rcx), %r10d
	imull	$77, %esi, %esi
	imull	$150, %r10d, %r10d
	addl	%r10d, %esi
	movzbl	30(%rcx), %r10d
	imull	$29, %r10d, %r10d
	addl	%r10d, %esi
	movl	%esi, %ebx
	movb	%bh, 14(%rax)
	movzbl	31(%rcx), %esi
	movb	%sil, 15(%rax)
	cmpl	$7, %edx
	je	.L1044
	movzbl	32(%rcx), %esi
	movzbl	33(%rcx), %r10d
	imull	$77, %esi, %esi
	imull	$150, %r10d, %r10d
	addl	%r10d, %esi
	movzbl	34(%rcx), %r10d
	imull	$29, %r10d, %r10d
	addl	%r10d, %esi
	movl	%esi, %ebx
	movb	%bh, 16(%rax)
	movzbl	35(%rcx), %esi
	movb	%sil, 17(%rax)
	cmpl	$8, %edx
	je	.L1044
	movzbl	36(%rcx), %esi
	movzbl	37(%rcx), %r10d
	imull	$77, %esi, %esi
	imull	$150, %r10d, %r10d
	addl	%r10d, %esi
	movzbl	38(%rcx), %r10d
	imull	$29, %r10d, %r10d
	addl	%r10d, %esi
	movl	%esi, %ebx
	movb	%bh, 18(%rax)
	movzbl	39(%rcx), %esi
	movb	%sil, 19(%rax)
	cmpl	$9, %edx
	je	.L1044
	movzbl	40(%rcx), %esi
	movzbl	41(%rcx), %r10d
	imull	$77, %esi, %esi
	imull	$150, %r10d, %r10d
	addl	%r10d, %esi
	movzbl	42(%rcx), %r10d
	imull	$29, %r10d, %r10d
	addl	%r10d, %esi
	movl	%esi, %ebx
	movb	%bh, 20(%rax)
	movzbl	43(%rcx), %esi
	movb	%sil, 21(%rax)
	cmpl	$10, %edx
	je	.L1044
	movzbl	44(%rcx), %esi
	movzbl	45(%rcx), %r10d
	imull	$77, %esi, %esi
	imull	$150, %r10d, %r10d
	addl	%r10d, %esi
	movzbl	46(%rcx), %r10d
	imull	$29, %r10d, %r10d
	addl	%r10d, %esi
	movl	%esi, %ebx
	movb	%bh, 22(%rax)
	movzbl	47(%rcx), %esi
	movb	%sil, 23(%rax)
	cmpl	$11, %edx
	je	.L1044
	movzbl	48(%rcx), %esi
	movzbl	49(%rcx), %r10d
	imull	$77, %esi, %esi
	imull	$150, %r10d, %r10d
	addl	%r10d, %esi
	movzbl	50(%rcx), %r10d
	imull	$29, %r10d, %r10d
	addl	%r10d, %esi
	movl	%esi, %ebx
	movb	%bh, 24(%rax)
	movzbl	51(%rcx), %esi
	movb	%sil, 25(%rax)
	cmpl	$12, %edx
	je	.L1044
	movzbl	52(%rcx), %esi
	movzbl	53(%rcx), %r10d
	imull	$77, %esi, %esi
	imull	$150, %r10d, %r10d
	addl	%r10d, %esi
	movzbl	54(%rcx), %r10d
	imull	$29, %r10d, %r10d
	addl	%r10d, %esi
	movl	%esi, %ebx
	movb	%bh, 26(%rax)
	movzbl	55(%rcx), %esi
	movb	%sil, 27(%rax)
	cmpl	$13, %edx
	je	.L1044
	movzbl	56(%rcx), %edx
	movzbl	57(%rcx), %esi
	imull	$77, %edx, %edx
	imull	$150, %esi, %esi
	addl	%esi, %edx
	movzbl	58(%rcx), %esi
	imull	$29, %esi, %esi
	addl	%esi, %edx
	movb	%dh, 28(%rax)
	movzbl	59(%rcx), %edx
	movb	%dl, 29(%rax)
	jmp	.L1044
	.p2align 4
	.p2align 3
.L1034:
	movl	(%rsp), %r11d
	testl	%r11d, %r11d
	js	.L1044
	cmpb	$0, 35(%rsp)
	jne	.L1096
	vmovdqa	.LC83(%rip), %xmm8
	vmovdqa	.LC84(%rip), %xmm7
	movq	%rcx, %rdx
	movq	%rax, %rsi
	vmovdqa	.LC85(%rip), %xmm6
	vmovdqa	.LC2(%rip), %xmm0
	movq	88(%rsp), %rbx
	leaq	64(%rcx,%rbx), %r10
	movl	%r11d, %ebx
	vpmovzxbw	%xmm8, %xmm9
	vpmovzxbw	%xmm7, %xmm5
	vpsrldq	$8, %xmm8, %xmm8
	vpsrldq	$8, %xmm7, %xmm7
	vpmovzxbw	%xmm6, %xmm4
	vpmovzxbw	%xmm8, %xmm8
	vpsrldq	$8, %xmm6, %xmm6
	vpmovzxbw	%xmm7, %xmm7
	vpmovzxbw	%xmm6, %xmm6
	.p2align 4
	.p2align 3
.L1077:
	vpand	16(%rdx), %xmm0, %xmm1
	vpand	(%rdx), %xmm0, %xmm10
	addq	$64, %rdx
	addq	$16, %rsi
	vpand	-32(%rdx), %xmm0, %xmm2
	vmovdqu	-16(%rdx), %xmm13
	vpackuswb	%xmm1, %xmm10, %xmm10
	vpand	-16(%rdx), %xmm0, %xmm1
	vpsrlw	$8, %xmm13, %xmm11
	vpackuswb	%xmm1, %xmm2, %xmm2
	vpand	%xmm10, %xmm0, %xmm1
	vpsrlw	$8, %xmm10, %xmm10
	vpand	%xmm2, %xmm0, %xmm3
	vpsrlw	$8, %xmm2, %xmm2
	vpackuswb	%xmm2, %xmm10, %xmm10
	vpackuswb	%xmm3, %xmm1, %xmm1
	vmovdqu	-64(%rdx), %xmm3
	vpsrlw	$8, %xmm3, %xmm2
	vmovdqu	-48(%rdx), %xmm3
	vpsrlw	$8, %xmm3, %xmm3
	vpackuswb	%xmm3, %xmm2, %xmm2
	vmovdqu	-32(%rdx), %xmm3
	vpand	%xmm2, %xmm0, %xmm2
	vpsrlw	$8, %xmm3, %xmm3
	vpackuswb	%xmm11, %xmm3, %xmm3
	vpand	%xmm3, %xmm0, %xmm3
	vpackuswb	%xmm3, %xmm2, %xmm2
	vpmovzxbw	%xmm1, %xmm3
	vpsrldq	$8, %xmm1, %xmm1
	vpmovzxbw	%xmm1, %xmm1
	vpmullw	%xmm9, %xmm3, %xmm3
	vpmovzxbw	%xmm2, %xmm11
	vpsrldq	$8, %xmm2, %xmm2
	vpmovzxbw	%xmm2, %xmm2
	vpmullw	%xmm5, %xmm11, %xmm11
	vpmullw	%xmm8, %xmm1, %xmm1
	vpaddw	%xmm11, %xmm3, %xmm3
	vpmovzxbw	%xmm10, %xmm11
	vpsrldq	$8, %xmm10, %xmm10
	vpmovzxbw	%xmm10, %xmm10
	vpmullw	%xmm7, %xmm2, %xmm2
	vpmullw	%xmm4, %xmm11, %xmm11
	vpaddw	%xmm2, %xmm1, %xmm1
	vpmullw	%xmm6, %xmm10, %xmm10
	vpaddw	%xmm11, %xmm3, %xmm3
	vpsrlw	$8, %xmm3, %xmm3
	vpand	%xmm3, %xmm0, %xmm3
	vpaddw	%xmm10, %xmm1, %xmm1
	vpsrlw	$8, %xmm1, %xmm1
	vpand	%xmm1, %xmm0, %xmm1
	vpackuswb	%xmm1, %xmm3, %xmm3
	vmovdqu	%xmm3, -16(%rsi)
	cmpq	%rdx, %r10
	jne	.L1077
	addq	80(%rsp), %rcx
	movl	%ebx, (%rsp)
	addq	72(%rsp), %rax
	movl	36(%rsp), %edx
.L1076:
	movzbl	(%rcx), %esi
	movzbl	1(%rcx), %r10d
	imull	$77, %esi, %esi
	imull	$150, %r10d, %r10d
	addl	%r10d, %esi
	movzbl	2(%rcx), %r10d
	imull	$29, %r10d, %r10d
	addl	%r10d, %esi
	movl	%esi, %ebx
	movb	%bh, (%rax)
	testl	%edx, %edx
	je	.L1044
	movzbl	4(%rcx), %esi
	movzbl	5(%rcx), %r10d
	imull	$77, %esi, %esi
	imull	$150, %r10d, %r10d
	addl	%r10d, %esi
	movzbl	6(%rcx), %r10d
	imull	$29, %r10d, %r10d
	addl	%r10d, %esi
	movl	%esi, %ebx
	movb	%bh, 1(%rax)
	cmpl	$1, %edx
	je	.L1044
	movzbl	8(%rcx), %esi
	movzbl	9(%rcx), %r10d
	imull	$77, %esi, %esi
	imull	$150, %r10d, %r10d
	addl	%r10d, %esi
	movzbl	10(%rcx), %r10d
	imull	$29, %r10d, %r10d
	addl	%r10d, %esi
	movl	%esi, %ebx
	movb	%bh, 2(%rax)
	cmpl	$2, %edx
	je	.L1044
	movzbl	12(%rcx), %esi
	movzbl	13(%rcx), %r10d
	imull	$77, %esi, %esi
	imull	$150, %r10d, %r10d
	addl	%r10d, %esi
	movzbl	14(%rcx), %r10d
	imull	$29, %r10d, %r10d
	addl	%r10d, %esi
	movl	%esi, %ebx
	movb	%bh, 3(%rax)
	cmpl	$3, %edx
	je	.L1044
	movzbl	16(%rcx), %esi
	movzbl	17(%rcx), %r10d
	imull	$77, %esi, %esi
	imull	$150, %r10d, %r10d
	addl	%r10d, %esi
	movzbl	18(%rcx), %r10d
	imull	$29, %r10d, %r10d
	addl	%r10d, %esi
	movl	%esi, %ebx
	movb	%bh, 4(%rax)
	cmpl	$4, %edx
	je	.L1044
	movzbl	20(%rcx), %esi
	movzbl	21(%rcx), %r10d
	imull	$77, %esi, %esi
	imull	$150, %r10d, %r10d
	addl	%r10d, %esi
	movzbl	22(%rcx), %r10d
	imull	$29, %r10d, %r10d
	addl	%r10d, %esi
	movl	%esi, %ebx
	movb	%bh, 5(%rax)
	cmpl	$5, %edx
	je	.L1044
	movzbl	24(%rcx), %esi
	movzbl	25(%rcx), %r10d
	imull	$77, %esi, %esi
	imull	$150, %r10d, %r10d
	addl	%r10d, %esi
	movzbl	26(%rcx), %r10d
	imull	$29, %r10d, %r10d
	addl	%r10d, %esi
	movl	%esi, %ebx
	movb	%bh, 6(%rax)
	cmpl	$6, %edx
	je	.L1044
	movzbl	28(%rcx), %esi
	movzbl	29(%rcx), %r10d
	imull	$77, %esi, %esi
	imull	$150, %r10d, %r10d
	addl	%r10d, %esi
	movzbl	30(%rcx), %r10d
	imull	$29, %r10d, %r10d
	addl	%r10d, %esi
	movl	%esi, %ebx
	movb	%bh, 7(%rax)
	cmpl	$7, %edx
	je	.L1044
	movzbl	32(%rcx), %esi
	movzbl	33(%rcx), %r10d
	imull	$77, %esi, %esi
	imull	$150, %r10d, %r10d
	addl	%r10d, %esi
	movzbl	34(%rcx), %r10d
	imull	$29, %r10d, %r10d
	addl	%r10d, %esi
	movl	%esi, %ebx
	movb	%bh, 8(%rax)
	cmpl	$8, %edx
	je	.L1044
	movzbl	36(%rcx), %esi
	movzbl	37(%rcx), %r10d
	imull	$77, %esi, %esi
	imull	$150, %r10d, %r10d
	addl	%r10d, %esi
	movzbl	38(%rcx), %r10d
	imull	$29, %r10d, %r10d
	addl	%r10d, %esi
	movl	%esi, %ebx
	movb	%bh, 9(%rax)
	cmpl	$9, %edx
	je	.L1044
	movzbl	40(%rcx), %esi
	movzbl	41(%rcx), %r10d
	imull	$77, %esi, %esi
	imull	$150, %r10d, %r10d
	addl	%r10d, %esi
	movzbl	42(%rcx), %r10d
	imull	$29, %r10d, %r10d
	addl	%r10d, %esi
	movl	%esi, %ebx
	movb	%bh, 10(%rax)
	cmpl	$10, %edx
	je	.L1044
	movzbl	44(%rcx), %esi
	movzbl	45(%rcx), %r10d
	imull	$77, %esi, %esi
	imull	$150, %r10d, %r10d
	addl	%r10d, %esi
	movzbl	46(%rcx), %r10d
	imull	$29, %r10d, %r10d
	addl	%r10d, %esi
	movl	%esi, %ebx
	movb	%bh, 11(%rax)
	cmpl	$11, %edx
	je	.L1044
	movzbl	48(%rcx), %esi
	movzbl	49(%rcx), %r10d
	imull	$77, %esi, %esi
	imull	$150, %r10d, %r10d
	addl	%r10d, %esi
	movzbl	50(%rcx), %r10d
	imull	$29, %r10d, %r10d
	addl	%r10d, %esi
	movl	%esi, %ebx
	movb	%bh, 12(%rax)
	cmpl	$12, %edx
	je	.L1044
	movzbl	52(%rcx), %esi
	movzbl	53(%rcx), %r10d
	imull	$77, %esi, %esi
	imull	$150, %r10d, %r10d
	addl	%r10d, %esi
	movzbl	54(%rcx), %r10d
	imull	$29, %r10d, %r10d
	addl	%r10d, %esi
	movl	%esi, %ebx
	movb	%bh, 13(%rax)
	cmpl	$13, %edx
	je	.L1044
	movzbl	56(%rcx), %esi
	movzbl	57(%rcx), %r10d
	imull	$77, %esi, %esi
	imull	$150, %r10d, %r10d
	addl	%r10d, %esi
	movzbl	58(%rcx), %r10d
	imull	$29, %r10d, %r10d
	addl	%r10d, %esi
	movl	%esi, %ebx
	movb	%bh, 14(%rax)
	cmpl	$14, %edx
	je	.L1044
	movzbl	60(%rcx), %esi
	movzbl	61(%rcx), %edx
	movzbl	62(%rcx), %ecx
	imull	$77, %esi, %esi
	imull	$150, %edx, %edx
	imull	$29, %ecx, %ecx
	addl	%esi, %edx
	addl	%ecx, %edx
	movb	%dh, 15(%rax)
	jmp	.L1044
	.p2align 4
	.p2align 3
.L1035:
	movl	(%rsp), %edx
	testl	%edx, %edx
	js	.L1044
	cmpb	$0, 34(%rsp)
	jne	.L1093
	movq	96(%rsp), %rbx
	movq	%rax, %rdx
	movq	%rax, 136(%rsp)
	movq	%rcx, %r13
	leaq	3(%r12,%r10), %rsi
	leaq	64(%rax,%rbx), %rbx
	movq	%rbx, 128(%rsp)
	movl	(%rsp), %ebx
	movq	128(%rsp), %rax
	.p2align 4
	.p2align 3
.L1063:
	vmovdqu	32(%r13), %xmm0
	addq	$64, %rdx
	addq	$48, %r13
	addq	$64, %rsi
	vmovdqu	-32(%r13), %xmm1
	vmovdqu	-48(%r13), %xmm2
	vpextrb	$0, %xmm1, -43(%rdx)
	vpextrb	$0, %xmm2, -64(%rdx)
	vpextrb	$1, %xmm2, -63(%rdx)
	vpextrb	$2, %xmm2, -62(%rdx)
	vpextrb	$3, %xmm2, -60(%rdx)
	vpextrb	$4, %xmm2, -59(%rdx)
	vpextrb	$5, %xmm2, -58(%rdx)
	vpextrb	$6, %xmm2, -56(%rdx)
	vpextrb	$7, %xmm2, -55(%rdx)
	vpextrb	$8, %xmm2, -54(%rdx)
	vpextrb	$9, %xmm2, -52(%rdx)
	vpextrb	$10, %xmm2, -51(%rdx)
	vpextrb	$11, %xmm2, -50(%rdx)
	vpextrb	$12, %xmm2, -48(%rdx)
	vpextrb	$13, %xmm2, -47(%rdx)
	vpextrb	$14, %xmm2, -46(%rdx)
	vpextrb	$15, %xmm2, -44(%rdx)
	vpextrb	$1, %xmm1, -42(%rdx)
	vpextrb	$2, %xmm1, -40(%rdx)
	vpextrb	$3, %xmm1, -39(%rdx)
	vpextrb	$4, %xmm1, -38(%rdx)
	vpextrb	$5, %xmm1, -36(%rdx)
	vpextrb	$6, %xmm1, -35(%rdx)
	vpextrb	$7, %xmm1, -34(%rdx)
	vpextrb	$8, %xmm1, -32(%rdx)
	vpextrb	$9, %xmm1, -31(%rdx)
	vpextrb	$10, %xmm1, -30(%rdx)
	vpextrb	$11, %xmm1, -28(%rdx)
	vpextrb	$12, %xmm1, -27(%rdx)
	vpextrb	$13, %xmm1, -26(%rdx)
	vpextrb	$14, %xmm1, -24(%rdx)
	vpextrb	$15, %xmm1, -23(%rdx)
	vpextrb	$0, %xmm0, -22(%rdx)
	vpextrb	$1, %xmm0, -20(%rdx)
	vpextrb	$2, %xmm0, -19(%rdx)
	vpextrb	$3, %xmm0, -18(%rdx)
	vpextrb	$4, %xmm0, -16(%rdx)
	vpextrb	$5, %xmm0, -15(%rdx)
	vpextrb	$6, %xmm0, -14(%rdx)
	vpextrb	$7, %xmm0, -12(%rdx)
	vpextrb	$8, %xmm0, -11(%rdx)
	vpextrb	$9, %xmm0, -10(%rdx)
	vpextrb	$10, %xmm0, -8(%rdx)
	vpextrb	$11, %xmm0, -7(%rdx)
	vpextrb	$12, %xmm0, -6(%rdx)
	vpextrb	$13, %xmm0, -4(%rdx)
	vpextrb	$14, %xmm0, -3(%rdx)
	vpextrb	$15, %xmm0, -2(%rdx)
	movb	$-1, -64(%rsi)
	movb	$-1, -60(%rsi)
	movb	$-1, -56(%rsi)
	movb	$-1, -52(%rsi)
	movb	$-1, -48(%rsi)
	movb	$-1, -44(%rsi)
	movb	$-1, -40(%rsi)
	movb	$-1, -36(%rsi)
	movb	$-1, -32(%rsi)
	movb	$-1, -28(%rsi)
	movb	$-1, -24(%rsi)
	movb	$-1, -20(%rsi)
	movb	$-1, -16(%rsi)
	movb	$-1, -12(%rsi)
	movb	$-1, -8(%rsi)
	movb	$-1, -4(%rsi)
	cmpq	%rdx, %rax
	jne	.L1063
	movl	%ebx, (%rsp)
	movl	16(%rsp), %esi
	movl	12(%rsp), %ebx
	movq	136(%rsp), %rax
	addq	40(%rsp), %rcx
	addq	56(%rsp), %rax
	cmpl	%ebx, %esi
	je	.L1044
	movl	20(%rsp), %r13d
.L1062:
	subl	%esi, %ebx
	leal	-1(%rbx), %edx
	cmpl	$6, %edx
	jbe	.L1066
	leaq	(%rsi,%rsi,2), %rdx
	leaq	(%r10,%rsi,4), %rsi
	addq	%r11, %rdx
	leaq	3(%r12,%rsi), %r10
	addq	%rbp, %rdx
	vmovq	(%rdx), %xmm2
	vmovq	8(%rdx), %xmm1
	vmovq	16(%rdx), %xmm0
	movl	%ebx, %edx
	andl	$-8, %edx
	vpextrb	$0, %xmm2, (%r12,%rsi)
	vpextrb	$1, %xmm2, 1(%r12,%rsi)
	vpextrb	$2, %xmm2, 2(%r12,%rsi)
	vpextrb	$3, %xmm2, 4(%r12,%rsi)
	subl	%edx, %r13d
	vpextrb	$4, %xmm2, 5(%r12,%rsi)
	vpextrb	$5, %xmm2, 6(%r12,%rsi)
	vpextrb	$6, %xmm2, 8(%r12,%rsi)
	vpextrb	$7, %xmm2, 9(%r12,%rsi)
	vpextrb	$0, %xmm1, 10(%r12,%rsi)
	vpextrb	$1, %xmm1, 12(%r12,%rsi)
	vpextrb	$2, %xmm1, 13(%r12,%rsi)
	vpextrb	$3, %xmm1, 14(%r12,%rsi)
	vpextrb	$4, %xmm1, 16(%r12,%rsi)
	vpextrb	$5, %xmm1, 17(%r12,%rsi)
	vpextrb	$6, %xmm1, 18(%r12,%rsi)
	vpextrb	$7, %xmm1, 20(%r12,%rsi)
	vpextrb	$0, %xmm0, 21(%r12,%rsi)
	vpextrb	$1, %xmm0, 22(%r12,%rsi)
	vpextrb	$2, %xmm0, 24(%r12,%rsi)
	vpextrb	$3, %xmm0, 25(%r12,%rsi)
	vpextrb	$4, %xmm0, 26(%r12,%rsi)
	vpextrb	$5, %xmm0, 28(%r12,%rsi)
	vpextrb	$6, %xmm0, 29(%r12,%rsi)
	vpextrb	$7, %xmm0, 30(%r12,%rsi)
	movl	%edx, %esi
	movb	$-1, (%r10)
	movb	$-1, 4(%r10)
	movb	$-1, 8(%r10)
	leaq	(%rax,%rsi,4), %rax
	movb	$-1, 12(%r10)
	movb	$-1, 16(%r10)
	movb	$-1, 20(%r10)
	movb	$-1, 24(%r10)
	movb	$-1, 28(%r10)
	leaq	(%rsi,%rsi,2), %r10
	addq	%r10, %rcx
	cmpl	%edx, %ebx
	je	.L1044
.L1066:
	movzbl	(%rcx), %edx
	movb	%dl, (%rax)
	movzbl	1(%rcx), %edx
	movb	%dl, 1(%rax)
	movzbl	2(%rcx), %edx
	movb	$-1, 3(%rax)
	movb	%dl, 2(%rax)
	testl	%r13d, %r13d
	je	.L1044
	movzbl	3(%rcx), %edx
	movb	%dl, 4(%rax)
	movzbl	4(%rcx), %edx
	movb	%dl, 5(%rax)
	movzbl	5(%rcx), %edx
	movb	$-1, 7(%rax)
	movb	%dl, 6(%rax)
	cmpl	$1, %r13d
	je	.L1044
	movzbl	6(%rcx), %edx
	movb	%dl, 8(%rax)
	movzbl	7(%rcx), %edx
	movb	%dl, 9(%rax)
	movzbl	8(%rcx), %edx
	movb	$-1, 11(%rax)
	movb	%dl, 10(%rax)
	cmpl	$2, %r13d
	je	.L1044
	movzbl	9(%rcx), %edx
	movb	%dl, 12(%rax)
	movzbl	10(%rcx), %edx
	movb	%dl, 13(%rax)
	movzbl	11(%rcx), %edx
	movb	$-1, 15(%rax)
	movb	%dl, 14(%rax)
	cmpl	$3, %r13d
	je	.L1044
	movzbl	12(%rcx), %edx
	movb	%dl, 16(%rax)
	movzbl	13(%rcx), %edx
	movb	%dl, 17(%rax)
	movzbl	14(%rcx), %edx
	movb	$-1, 19(%rax)
	movb	%dl, 18(%rax)
	cmpl	$4, %r13d
	je	.L1044
	movzbl	15(%rcx), %edx
	movb	%dl, 20(%rax)
	movzbl	16(%rcx), %edx
	movb	%dl, 21(%rax)
	movzbl	17(%rcx), %edx
	movb	$-1, 23(%rax)
	movb	%dl, 22(%rax)
	cmpl	$5, %r13d
	je	.L1044
	movzbl	18(%rcx), %edx
	movb	%dl, 24(%rax)
	movzbl	19(%rcx), %edx
	movb	%dl, 25(%rax)
	movzbl	20(%rcx), %edx
	movb	$-1, 27(%rax)
	movb	%dl, 26(%rax)
	jmp	.L1044
	.p2align 4
	.p2align 3
.L1036:
	movl	(%rsp), %r11d
	testl	%r11d, %r11d
	js	.L1044
	cmpb	$0, 34(%rsp)
	jne	.L1095
	vmovdqa	.LC83(%rip), %xmm8
	vmovdqa	.LC84(%rip), %xmm7
	movq	%rcx, %rsi
	movq	%rax, %rdx
	vmovdqa	.LC85(%rip), %xmm6
	vmovdqa	.LC2(%rip), %xmm0
	vpcmpeqd	%xmm10, %xmm10, %xmm10
	vmovdqa	.LC82(%rip), %xmm5
	movq	104(%rsp), %rbx
	leaq	32(%rax,%rbx), %r10
	movl	%r11d, %ebx
	vpmovzxbw	%xmm8, %xmm13
	vpmovzxbw	%xmm7, %xmm12
	vpsrldq	$8, %xmm8, %xmm8
	vpsrldq	$8, %xmm7, %xmm7
	vpmovzxbw	%xmm6, %xmm11
	vpmovzxbw	%xmm8, %xmm8
	vpsrldq	$8, %xmm6, %xmm6
	vpmovzxbw	%xmm7, %xmm7
	vpmovzxbw	%xmm6, %xmm6
	.p2align 4
	.p2align 3
.L1073:
	vmovdqu	(%rsi), %xmm4
	addq	$32, %rdx
	addq	$48, %rsi
	vpshufb	%xmm5, %xmm4, %xmm3
	vmovdqu	-32(%rsi), %xmm4
	vpshufb	%xmm5, %xmm4, %xmm2
	vmovdqu	-16(%rsi), %xmm4
	vpalignr	$11, %xmm3, %xmm2, %xmm1
	vpshufb	%xmm5, %xmm4, %xmm4
	vpalignr	$11, %xmm4, %xmm3, %xmm3
	vpalignr	$11, %xmm2, %xmm4, %xmm2
	vpalignr	$11, %xmm2, %xmm1, %xmm4
	vpalignr	$11, %xmm3, %xmm2, %xmm2
	vpalignr	$11, %xmm1, %xmm3, %xmm1
	vpalignr	$5, %xmm4, %xmm4, %xmm4
	vpalignr	$10, %xmm1, %xmm1, %xmm1
	vpmovzxbw	%xmm4, %xmm9
	vpmullw	%xmm12, %xmm9, %xmm9
	vpmovzxbw	%xmm1, %xmm3
	vpsrldq	$8, %xmm4, %xmm4
	vpsrldq	$8, %xmm1, %xmm1
	vpmovzxbw	%xmm4, %xmm4
	vpmovzxbw	%xmm1, %xmm1
	vpmullw	%xmm13, %xmm3, %xmm3
	vpmullw	%xmm8, %xmm1, %xmm1
	vpaddw	%xmm9, %xmm3, %xmm3
	vpmovzxbw	%xmm2, %xmm9
	vpsrldq	$8, %xmm2, %xmm2
	vpmovzxbw	%xmm2, %xmm2
	vpmullw	%xmm7, %xmm4, %xmm4
	vpmullw	%xmm11, %xmm9, %xmm9
	vpaddw	%xmm4, %xmm1, %xmm1
	vpmullw	%xmm6, %xmm2, %xmm2
	vpaddw	%xmm9, %xmm3, %xmm3
	vpsrlw	$8, %xmm3, %xmm3
	vpaddw	%xmm2, %xmm1, %xmm2
	vpand	%xmm3, %xmm0, %xmm1
	vpsrlw	$8, %xmm2, %xmm2
	vpand	%xmm2, %xmm0, %xmm2
	vpackuswb	%xmm2, %xmm1, %xmm1
	vpunpcklbw	%xmm10, %xmm1, %xmm2
	vpunpckhbw	%xmm10, %xmm1, %xmm1
	vmovdqu	%xmm2, -32(%rdx)
	vmovdqu	%xmm1, -16(%rdx)
	cmpq	%rdx, %r10
	jne	.L1073
	movl	%ebx, (%rsp)
	addq	40(%rsp), %rcx
	addq	24(%rsp), %rax
	movl	12(%rsp), %edx
	cmpl	%edx, 16(%rsp)
	je	.L1044
	movl	20(%rsp), %edx
.L1072:
	movzbl	(%rcx), %esi
	movzbl	1(%rcx), %r10d
	imull	$77, %esi, %esi
	imull	$150, %r10d, %r10d
	addl	%r10d, %esi
	movzbl	2(%rcx), %r10d
	movb	$-1, 1(%rax)
	imull	$29, %r10d, %r10d
	addl	%r10d, %esi
	movl	%esi, %ebx
	movb	%bh, (%rax)
	testl	%edx, %edx
	je	.L1044
	movzbl	3(%rcx), %esi
	movzbl	4(%rcx), %r10d
	imull	$77, %esi, %esi
	imull	$150, %r10d, %r10d
	addl	%r10d, %esi
	movzbl	5(%rcx), %r10d
	movb	$-1, 3(%rax)
	imull	$29, %r10d, %r10d
	addl	%r10d, %esi
	movl	%esi, %ebx
	movb	%bh, 2(%rax)
	cmpl	$1, %edx
	je	.L1044
	movzbl	6(%rcx), %esi
	movzbl	7(%rcx), %r10d
	imull	$77, %esi, %esi
	imull	$150, %r10d, %r10d
	addl	%r10d, %esi
	movzbl	8(%rcx), %r10d
	movb	$-1, 5(%rax)
	imull	$29, %r10d, %r10d
	addl	%r10d, %esi
	movl	%esi, %ebx
	movb	%bh, 4(%rax)
	cmpl	$2, %edx
	je	.L1044
	movzbl	9(%rcx), %esi
	movzbl	10(%rcx), %r10d
	imull	$77, %esi, %esi
	imull	$150, %r10d, %r10d
	addl	%r10d, %esi
	movzbl	11(%rcx), %r10d
	movb	$-1, 7(%rax)
	imull	$29, %r10d, %r10d
	addl	%r10d, %esi
	movl	%esi, %ebx
	movb	%bh, 6(%rax)
	cmpl	$3, %edx
	je	.L1044
	movzbl	12(%rcx), %esi
	movzbl	13(%rcx), %r10d
	imull	$77, %esi, %esi
	imull	$150, %r10d, %r10d
	addl	%r10d, %esi
	movzbl	14(%rcx), %r10d
	movb	$-1, 9(%rax)
	imull	$29, %r10d, %r10d
	addl	%r10d, %esi
	movl	%esi, %ebx
	movb	%bh, 8(%rax)
	cmpl	$4, %edx
	je	.L1044
	movzbl	15(%rcx), %esi
	movzbl	16(%rcx), %r10d
	imull	$77, %esi, %esi
	imull	$150, %r10d, %r10d
	addl	%r10d, %esi
	movzbl	17(%rcx), %r10d
	movb	$-1, 11(%rax)
	imull	$29, %r10d, %r10d
	addl	%r10d, %esi
	movl	%esi, %ebx
	movb	%bh, 10(%rax)
	cmpl	$5, %edx
	je	.L1044
	movzbl	18(%rcx), %esi
	movzbl	19(%rcx), %r10d
	imull	$77, %esi, %esi
	imull	$150, %r10d, %r10d
	addl	%r10d, %esi
	movzbl	20(%rcx), %r10d
	movb	$-1, 13(%rax)
	imull	$29, %r10d, %r10d
	addl	%r10d, %esi
	movl	%esi, %ebx
	movb	%bh, 12(%rax)
	cmpl	$6, %edx
	je	.L1044
	movzbl	21(%rcx), %esi
	movzbl	22(%rcx), %r10d
	imull	$77, %esi, %esi
	imull	$150, %r10d, %r10d
	addl	%r10d, %esi
	movzbl	23(%rcx), %r10d
	movb	$-1, 15(%rax)
	imull	$29, %r10d, %r10d
	addl	%r10d, %esi
	movl	%esi, %ebx
	movb	%bh, 14(%rax)
	cmpl	$7, %edx
	je	.L1044
	movzbl	24(%rcx), %esi
	movzbl	25(%rcx), %r10d
	imull	$77, %esi, %esi
	imull	$150, %r10d, %r10d
	addl	%r10d, %esi
	movzbl	26(%rcx), %r10d
	movb	$-1, 17(%rax)
	imull	$29, %r10d, %r10d
	addl	%r10d, %esi
	movl	%esi, %ebx
	movb	%bh, 16(%rax)
	cmpl	$8, %edx
	je	.L1044
	movzbl	27(%rcx), %esi
	movzbl	28(%rcx), %r10d
	imull	$77, %esi, %esi
	imull	$150, %r10d, %r10d
	addl	%r10d, %esi
	movzbl	29(%rcx), %r10d
	movb	$-1, 19(%rax)
	imull	$29, %r10d, %r10d
	addl	%r10d, %esi
	movl	%esi, %ebx
	movb	%bh, 18(%rax)
	cmpl	$9, %edx
	je	.L1044
	movzbl	30(%rcx), %esi
	movzbl	31(%rcx), %r10d
	imull	$77, %esi, %esi
	imull	$150, %r10d, %r10d
	addl	%r10d, %esi
	movzbl	32(%rcx), %r10d
	movb	$-1, 21(%rax)
	imull	$29, %r10d, %r10d
	addl	%r10d, %esi
	movl	%esi, %ebx
	movb	%bh, 20(%rax)
	cmpl	$10, %edx
	je	.L1044
	movzbl	33(%rcx), %esi
	movzbl	34(%rcx), %r10d
	imull	$77, %esi, %esi
	imull	$150, %r10d, %r10d
	addl	%r10d, %esi
	movzbl	35(%rcx), %r10d
	movb	$-1, 23(%rax)
	imull	$29, %r10d, %r10d
	addl	%r10d, %esi
	movl	%esi, %ebx
	movb	%bh, 22(%rax)
	cmpl	$11, %edx
	je	.L1044
	movzbl	36(%rcx), %esi
	movzbl	37(%rcx), %r10d
	imull	$77, %esi, %esi
	imull	$150, %r10d, %r10d
	addl	%r10d, %esi
	movzbl	38(%rcx), %r10d
	movb	$-1, 25(%rax)
	imull	$29, %r10d, %r10d
	addl	%r10d, %esi
	movl	%esi, %ebx
	movb	%bh, 24(%rax)
	cmpl	$12, %edx
	je	.L1044
	movzbl	39(%rcx), %esi
	movzbl	40(%rcx), %r10d
	imull	$77, %esi, %esi
	imull	$150, %r10d, %r10d
	addl	%r10d, %esi
	movzbl	41(%rcx), %r10d
	movb	$-1, 27(%rax)
	imull	$29, %r10d, %r10d
	addl	%r10d, %esi
	movl	%esi, %ebx
	movb	%bh, 26(%rax)
	cmpl	$13, %edx
	je	.L1044
	movzbl	42(%rcx), %esi
	movzbl	43(%rcx), %edx
	movzbl	44(%rcx), %ecx
	movb	$-1, 29(%rax)
	imull	$77, %esi, %esi
	imull	$150, %edx, %edx
	imull	$29, %ecx, %ecx
	addl	%esi, %edx
	addl	%ecx, %edx
	movb	%dh, 28(%rax)
	jmp	.L1044
	.p2align 4
	.p2align 3
.L1037:
	movl	(%rsp), %r11d
	testl	%r11d, %r11d
	js	.L1044
	cmpb	$0, 34(%rsp)
	jne	.L1094
	vmovdqa	.LC83(%rip), %xmm8
	vmovdqa	.LC84(%rip), %xmm7
	movq	%rcx, %rdx
	movq	%rax, %rsi
	vmovdqa	.LC85(%rip), %xmm6
	vmovdqa	.LC2(%rip), %xmm0
	vmovdqa	.LC82(%rip), %xmm5
	movq	64(%rsp), %rbx
	leaq	(%rax,%rbx), %r10
	movl	%r11d, %ebx
	vpmovzxbw	%xmm8, %xmm12
	vpmovzxbw	%xmm7, %xmm11
	vpsrldq	$8, %xmm8, %xmm8
	vpsrldq	$8, %xmm7, %xmm7
	vpmovzxbw	%xmm6, %xmm10
	vpmovzxbw	%xmm8, %xmm8
	vpsrldq	$8, %xmm6, %xmm6
	vpmovzxbw	%xmm7, %xmm7
	vpmovzxbw	%xmm6, %xmm6
	.p2align 4
	.p2align 3
.L1069:
	vmovdqu	(%rdx), %xmm4
	vmovdqu	32(%rdx), %xmm2
	addq	$16, %rsi
	addq	$48, %rdx
	vpshufb	%xmm5, %xmm4, %xmm3
	vmovdqu	-32(%rdx), %xmm4
	vpshufb	%xmm5, %xmm2, %xmm2
	vpshufb	%xmm5, %xmm4, %xmm4
	vpalignr	$11, %xmm3, %xmm4, %xmm1
	vpalignr	$11, %xmm2, %xmm3, %xmm3
	vpalignr	$11, %xmm4, %xmm2, %xmm4
	vpalignr	$11, %xmm4, %xmm1, %xmm2
	vpalignr	$11, %xmm3, %xmm4, %xmm4
	vpalignr	$11, %xmm1, %xmm3, %xmm1
	vpalignr	$5, %xmm2, %xmm2, %xmm2
	vpalignr	$10, %xmm1, %xmm1, %xmm1
	vpmovzxbw	%xmm2, %xmm9
	vpmovzxbw	%xmm1, %xmm3
	vpsrldq	$8, %xmm2, %xmm2
	vpsrldq	$8, %xmm1, %xmm1
	vpmullw	%xmm11, %xmm9, %xmm9
	vpmovzxbw	%xmm1, %xmm1
	vpmovzxbw	%xmm2, %xmm2
	vpmullw	%xmm12, %xmm3, %xmm3
	vpmullw	%xmm8, %xmm1, %xmm1
	vpaddw	%xmm9, %xmm3, %xmm3
	vpmovzxbw	%xmm4, %xmm9
	vpsrldq	$8, %xmm4, %xmm4
	vpmovzxbw	%xmm4, %xmm4
	vpmullw	%xmm7, %xmm2, %xmm2
	vpmullw	%xmm10, %xmm9, %xmm9
	vpaddw	%xmm2, %xmm1, %xmm1
	vpmullw	%xmm6, %xmm4, %xmm4
	vpaddw	%xmm9, %xmm3, %xmm3
	vpsrlw	$8, %xmm3, %xmm3
	vpand	%xmm3, %xmm0, %xmm3
	vpaddw	%xmm4, %xmm1, %xmm1
	vpsrlw	$8, %xmm1, %xmm1
	vpand	%xmm1, %xmm0, %xmm1
	vpackuswb	%xmm1, %xmm3, %xmm3
	vmovdqu	%xmm3, -16(%rsi)
	cmpq	%rsi, %r10
	jne	.L1069
	addq	40(%rsp), %rcx
	movl	%ebx, (%rsp)
	addq	48(%rsp), %rax
	movl	12(%rsp), %edx
	cmpl	%edx, 16(%rsp)
	je	.L1044
	movl	20(%rsp), %edx
.L1068:
	movzbl	(%rcx), %esi
	movzbl	1(%rcx), %r10d
	imull	$77, %esi, %esi
	imull	$150, %r10d, %r10d
	addl	%r10d, %esi
	movzbl	2(%rcx), %r10d
	imull	$29, %r10d, %r10d
	addl	%r10d, %esi
	movl	%esi, %ebx
	movb	%bh, (%rax)
	testl	%edx, %edx
	je	.L1044
	movzbl	3(%rcx), %esi
	movzbl	4(%rcx), %r10d
	imull	$77, %esi, %esi
	imull	$150, %r10d, %r10d
	addl	%r10d, %esi
	movzbl	5(%rcx), %r10d
	imull	$29, %r10d, %r10d
	addl	%r10d, %esi
	movl	%esi, %ebx
	movb	%bh, 1(%rax)
	cmpl	$1, %edx
	je	.L1044
	movzbl	6(%rcx), %esi
	movzbl	7(%rcx), %r10d
	imull	$77, %esi, %esi
	imull	$150, %r10d, %r10d
	addl	%r10d, %esi
	movzbl	8(%rcx), %r10d
	imull	$29, %r10d, %r10d
	addl	%r10d, %esi
	movl	%esi, %ebx
	movb	%bh, 2(%rax)
	cmpl	$2, %edx
	je	.L1044
	movzbl	9(%rcx), %esi
	movzbl	10(%rcx), %r10d
	imull	$77, %esi, %esi
	imull	$150, %r10d, %r10d
	addl	%r10d, %esi
	movzbl	11(%rcx), %r10d
	imull	$29, %r10d, %r10d
	addl	%r10d, %esi
	movl	%esi, %ebx
	movb	%bh, 3(%rax)
	cmpl	$3, %edx
	je	.L1044
	movzbl	12(%rcx), %esi
	movzbl	13(%rcx), %r10d
	imull	$77, %esi, %esi
	imull	$150, %r10d, %r10d
	addl	%r10d, %esi
	movzbl	14(%rcx), %r10d
	imull	$29, %r10d, %r10d
	addl	%r10d, %esi
	movl	%esi, %ebx
	movb	%bh, 4(%rax)
	cmpl	$4, %edx
	je	.L1044
	movzbl	15(%rcx), %esi
	movzbl	16(%rcx), %r10d
	imull	$77, %esi, %esi
	imull	$150, %r10d, %r10d
	addl	%r10d, %esi
	movzbl	17(%rcx), %r10d
	imull	$29, %r10d, %r10d
	addl	%r10d, %esi
	movl	%esi, %ebx
	movb	%bh, 5(%rax)
	cmpl	$5, %edx
	je	.L1044
	movzbl	18(%rcx), %esi
	movzbl	19(%rcx), %r10d
	imull	$77, %esi, %esi
	imull	$150, %r10d, %r10d
	addl	%r10d, %esi
	movzbl	20(%rcx), %r10d
	imull	$29, %r10d, %r10d
	addl	%r10d, %esi
	movl	%esi, %ebx
	movb	%bh, 6(%rax)
	cmpl	$6, %edx
	je	.L1044
	movzbl	21(%rcx), %esi
	movzbl	22(%rcx), %r10d
	imull	$77, %esi, %esi
	imull	$150, %r10d, %r10d
	addl	%r10d, %esi
	movzbl	23(%rcx), %r10d
	imull	$29, %r10d, %r10d
	addl	%r10d, %esi
	movl	%esi, %ebx
	movb	%bh, 7(%rax)
	cmpl	$7, %edx
	je	.L1044
	movzbl	24(%rcx), %esi
	movzbl	25(%rcx), %r10d
	imull	$77, %esi, %esi
	imull	$150, %r10d, %r10d
	addl	%r10d, %esi
	movzbl	26(%rcx), %r10d
	imull	$29, %r10d, %r10d
	addl	%r10d, %esi
	movl	%esi, %ebx
	movb	%bh, 8(%rax)
	cmpl	$8, %edx
	je	.L1044
	movzbl	27(%rcx), %esi
	movzbl	28(%rcx), %r10d
	imull	$77, %esi, %esi
	imull	$150, %r10d, %r10d
	addl	%r10d, %esi
	movzbl	29(%rcx), %r10d
	imull	$29, %r10d, %r10d
	addl	%r10d, %esi
	movl	%esi, %ebx
	movb	%bh, 9(%rax)
	cmpl	$9, %edx
	je	.L1044
	movzbl	30(%rcx), %esi
	movzbl	31(%rcx), %r10d
	imull	$77, %esi, %esi
	imull	$150, %r10d, %r10d
	addl	%r10d, %esi
	movzbl	32(%rcx), %r10d
	imull	$29, %r10d, %r10d
	addl	%r10d, %esi
	movl	%esi, %ebx
	movb	%bh, 10(%rax)
	cmpl	$10, %edx
	je	.L1044
	movzbl	33(%rcx), %esi
	movzbl	34(%rcx), %r10d
	imull	$77, %esi, %esi
	imull	$150, %r10d, %r10d
	addl	%r10d, %esi
	movzbl	35(%rcx), %r10d
	imull	$29, %r10d, %r10d
	addl	%r10d, %esi
	movl	%esi, %ebx
	movb	%bh, 11(%rax)
	cmpl	$11, %edx
	je	.L1044
	movzbl	36(%rcx), %esi
	movzbl	37(%rcx), %r10d
	imull	$77, %esi, %esi
	imull	$150, %r10d, %r10d
	addl	%r10d, %esi
	movzbl	38(%rcx), %r10d
	imull	$29, %r10d, %r10d
	addl	%r10d, %esi
	movl	%esi, %ebx
	movb	%bh, 12(%rax)
	cmpl	$12, %edx
	je	.L1044
	movzbl	39(%rcx), %esi
	movzbl	40(%rcx), %r10d
	imull	$77, %esi, %esi
	imull	$150, %r10d, %r10d
	addl	%r10d, %esi
	movzbl	41(%rcx), %r10d
	imull	$29, %r10d, %r10d
	addl	%r10d, %esi
	movl	%esi, %ebx
	movb	%bh, 13(%rax)
	cmpl	$13, %edx
	je	.L1044
	movzbl	42(%rcx), %esi
	movzbl	43(%rcx), %edx
	movzbl	44(%rcx), %ecx
	imull	$77, %esi, %esi
	imull	$150, %edx, %edx
	imull	$29, %ecx, %ecx
	addl	%esi, %edx
	addl	%ecx, %edx
	movb	%dh, 14(%rax)
	jmp	.L1044
	.p2align 4
	.p2align 3
.L1038:
	movl	(%rsp), %r11d
	testl	%r11d, %r11d
	js	.L1044
	cmpb	$0, 34(%rsp)
	jne	.L1092
	vmovdqa	.LC2(%rip), %xmm0
	movq	104(%rsp), %rbx
	movq	%rcx, %rsi
	movq	%rax, %rdx
	leaq	32(%rcx,%rbx), %r10
	movl	%r11d, %ebx
	.p2align 4
	.p2align 3
.L1059:
	vpand	16(%rsi), %xmm0, %xmm2
	vpand	(%rsi), %xmm0, %xmm1
	addq	$32, %rsi
	addq	$64, %rdx
	vmovdqu	-32(%rsi), %xmm7
	vmovdqu	-16(%rsi), %xmm6
	vpackuswb	%xmm2, %xmm1, %xmm1
	vpsrlw	$8, %xmm6, %xmm3
	vpsrlw	$8, %xmm7, %xmm2
	vpackuswb	%xmm3, %xmm2, %xmm2
	vpunpcklbw	%xmm1, %xmm1, %xmm4
	vpunpcklbw	%xmm2, %xmm1, %xmm5
	vpunpckhbw	%xmm1, %xmm1, %xmm3
	vpunpckhbw	%xmm2, %xmm1, %xmm1
	vpunpcklbw	%xmm5, %xmm4, %xmm2
	vpunpckhbw	%xmm5, %xmm4, %xmm4
	vmovdqu	%xmm2, -64(%rdx)
	vpunpcklbw	%xmm1, %xmm3, %xmm2
	vpunpckhbw	%xmm1, %xmm3, %xmm3
	vmovdqu	%xmm4, -48(%rdx)
	vmovdqu	%xmm2, -32(%rdx)
	vmovdqu	%xmm3, -16(%rdx)
	cmpq	%rsi, %r10
	jne	.L1059
	movl	%ebx, (%rsp)
	addq	24(%rsp), %rcx
	addq	56(%rsp), %rax
	movl	12(%rsp), %edx
	cmpl	%edx, 16(%rsp)
	je	.L1044
	movl	20(%rsp), %edx
.L1058:
	movzbl	(%rcx), %esi
	movb	%sil, 2(%rax)
	movb	%sil, 1(%rax)
	movb	%sil, (%rax)
	movzbl	1(%rcx), %esi
	movb	%sil, 3(%rax)
	testl	%edx, %edx
	je	.L1044
	movzbl	2(%rcx), %esi
	movb	%sil, 6(%rax)
	movb	%sil, 5(%rax)
	movb	%sil, 4(%rax)
	movzbl	3(%rcx), %esi
	movb	%sil, 7(%rax)
	cmpl	$1, %edx
	je	.L1044
	movzbl	4(%rcx), %esi
	movb	%sil, 10(%rax)
	movb	%sil, 9(%rax)
	movb	%sil, 8(%rax)
	movzbl	5(%rcx), %esi
	movb	%sil, 11(%rax)
	cmpl	$2, %edx
	je	.L1044
	movzbl	6(%rcx), %esi
	movb	%sil, 14(%rax)
	movb	%sil, 13(%rax)
	movb	%sil, 12(%rax)
	movzbl	7(%rcx), %esi
	movb	%sil, 15(%rax)
	cmpl	$3, %edx
	je	.L1044
	movzbl	8(%rcx), %esi
	movb	%sil, 18(%rax)
	movb	%sil, 17(%rax)
	movb	%sil, 16(%rax)
	movzbl	9(%rcx), %esi
	movb	%sil, 19(%rax)
	cmpl	$4, %edx
	je	.L1044
	movzbl	10(%rcx), %esi
	movb	%sil, 22(%rax)
	movb	%sil, 21(%rax)
	movb	%sil, 20(%rax)
	movzbl	11(%rcx), %esi
	movb	%sil, 23(%rax)
	cmpl	$5, %edx
	je	.L1044
	movzbl	12(%rcx), %esi
	movb	%sil, 26(%rax)
	movb	%sil, 25(%rax)
	movb	%sil, 24(%rax)
	movzbl	13(%rcx), %esi
	movb	%sil, 27(%rax)
	cmpl	$6, %edx
	je	.L1044
	movzbl	14(%rcx), %esi
	movb	%sil, 30(%rax)
	movb	%sil, 29(%rax)
	movb	%sil, 28(%rax)
	movzbl	15(%rcx), %esi
	movb	%sil, 31(%rax)
	cmpl	$7, %edx
	je	.L1044
	movzbl	16(%rcx), %esi
	movb	%sil, 34(%rax)
	movb	%sil, 33(%rax)
	movb	%sil, 32(%rax)
	movzbl	17(%rcx), %esi
	movb	%sil, 35(%rax)
	cmpl	$8, %edx
	je	.L1044
	movzbl	18(%rcx), %esi
	movb	%sil, 38(%rax)
	movb	%sil, 37(%rax)
	movb	%sil, 36(%rax)
	movzbl	19(%rcx), %esi
	movb	%sil, 39(%rax)
	cmpl	$9, %edx
	je	.L1044
	movzbl	20(%rcx), %esi
	movb	%sil, 42(%rax)
	movb	%sil, 41(%rax)
	movb	%sil, 40(%rax)
	movzbl	21(%rcx), %esi
	movb	%sil, 43(%rax)
	cmpl	$10, %edx
	je	.L1044
	movzbl	22(%rcx), %esi
	movb	%sil, 46(%rax)
	movb	%sil, 45(%rax)
	movb	%sil, 44(%rax)
	movzbl	23(%rcx), %esi
	movb	%sil, 47(%rax)
	cmpl	$11, %edx
	je	.L1044
	movzbl	24(%rcx), %esi
	movb	%sil, 50(%rax)
	movb	%sil, 49(%rax)
	movb	%sil, 48(%rax)
	movzbl	25(%rcx), %esi
	movb	%sil, 51(%rax)
	cmpl	$12, %edx
	je	.L1044
	movzbl	26(%rcx), %esi
	movb	%sil, 54(%rax)
	movb	%sil, 53(%rax)
	movb	%sil, 52(%rax)
	movzbl	27(%rcx), %esi
	movb	%sil, 55(%rax)
	cmpl	$13, %edx
	je	.L1044
	movzbl	28(%rcx), %edx
	movb	%dl, 58(%rax)
	movb	%dl, 57(%rax)
	movb	%dl, 56(%rax)
	movzbl	29(%rcx), %edx
	movb	%dl, 59(%rax)
	jmp	.L1044
	.p2align 4
	.p2align 3
.L1039:
	movl	(%rsp), %ebx
	testl	%ebx, %ebx
	js	.L1044
	cmpb	$0, 35(%rsp)
	jne	.L1091
	vmovdqa	.LC79(%rip), %xmm4
	vmovdqa	.LC80(%rip), %xmm3
	movq	%rcx, %rsi
	movq	%rax, %rdx
	vmovdqa	.LC81(%rip), %xmm2
	movq	152(%rsp), %r10
	salq	$5, %r10
	addq	%rcx, %r10
	.p2align 4
	.p2align 3
.L1057:
	vmovdqu	(%rsi), %xmm6
	vmovdqu	16(%rsi), %xmm1
	addq	$32, %rsi
	addq	$48, %rdx
	vpshufb	%xmm4, %xmm6, %xmm0
	vmovdqu	%xmm0, -48(%rdx)
	vpalignr	$10, -32(%rsi), %xmm1, %xmm0
	vpshufb	%xmm2, %xmm1, %xmm1
	vpshufb	%xmm3, %xmm0, %xmm0
	vmovdqu	%xmm0, -32(%rdx)
	vmovdqu	%xmm1, -16(%rdx)
	cmpq	%rsi, %r10
	jne	.L1057
	movl	%ebx, (%rsp)
	addq	112(%rsp), %rcx
	addq	120(%rsp), %rax
	movl	36(%rsp), %edx
.L1056:
	movzbl	(%rcx), %esi
	movb	%sil, 2(%rax)
	movb	%sil, 1(%rax)
	movb	%sil, (%rax)
	testl	%edx, %edx
	je	.L1044
	movzbl	2(%rcx), %esi
	movb	%sil, 5(%rax)
	movb	%sil, 4(%rax)
	movb	%sil, 3(%rax)
	cmpl	$1, %edx
	je	.L1044
	movzbl	4(%rcx), %esi
	movb	%sil, 8(%rax)
	movb	%sil, 7(%rax)
	movb	%sil, 6(%rax)
	cmpl	$2, %edx
	je	.L1044
	movzbl	6(%rcx), %esi
	movb	%sil, 11(%rax)
	movb	%sil, 10(%rax)
	movb	%sil, 9(%rax)
	cmpl	$3, %edx
	je	.L1044
	movzbl	8(%rcx), %esi
	movb	%sil, 14(%rax)
	movb	%sil, 13(%rax)
	movb	%sil, 12(%rax)
	cmpl	$4, %edx
	je	.L1044
	movzbl	10(%rcx), %esi
	movb	%sil, 17(%rax)
	movb	%sil, 16(%rax)
	movb	%sil, 15(%rax)
	cmpl	$5, %edx
	je	.L1044
	movzbl	12(%rcx), %esi
	movb	%sil, 20(%rax)
	movb	%sil, 19(%rax)
	movb	%sil, 18(%rax)
	cmpl	$6, %edx
	je	.L1044
	movzbl	14(%rcx), %esi
	movb	%sil, 23(%rax)
	movb	%sil, 22(%rax)
	movb	%sil, 21(%rax)
	cmpl	$7, %edx
	je	.L1044
	movzbl	16(%rcx), %esi
	movb	%sil, 26(%rax)
	movb	%sil, 25(%rax)
	movb	%sil, 24(%rax)
	cmpl	$8, %edx
	je	.L1044
	movzbl	18(%rcx), %esi
	movb	%sil, 29(%rax)
	movb	%sil, 28(%rax)
	movb	%sil, 27(%rax)
	cmpl	$9, %edx
	je	.L1044
	movzbl	20(%rcx), %esi
	movb	%sil, 32(%rax)
	movb	%sil, 31(%rax)
	movb	%sil, 30(%rax)
	cmpl	$10, %edx
	je	.L1044
	movzbl	22(%rcx), %esi
	movb	%sil, 35(%rax)
	movb	%sil, 34(%rax)
	movb	%sil, 33(%rax)
	cmpl	$11, %edx
	je	.L1044
	movzbl	24(%rcx), %esi
	movb	%sil, 38(%rax)
	movb	%sil, 37(%rax)
	movb	%sil, 36(%rax)
	cmpl	$12, %edx
	je	.L1044
	movzbl	26(%rcx), %esi
	movb	%sil, 41(%rax)
	movb	%sil, 40(%rax)
	movb	%sil, 39(%rax)
	cmpl	$13, %edx
	je	.L1044
	movzbl	28(%rcx), %esi
	movb	%sil, 44(%rax)
	movb	%sil, 43(%rax)
	movb	%sil, 42(%rax)
	cmpl	$14, %edx
	je	.L1044
	movzbl	30(%rcx), %edx
	movb	%dl, 47(%rax)
	movb	%dl, 46(%rax)
	movb	%dl, 45(%rax)
	jmp	.L1044
	.p2align 4
	.p2align 3
.L1040:
	movl	(%rsp), %ebx
	testl	%ebx, %ebx
	js	.L1044
	cmpb	$0, 35(%rsp)
	jne	.L1090
	vmovdqa	.LC2(%rip), %xmm0
	movq	144(%rsp), %rsi
	xorl	%edx, %edx
	.p2align 4
	.p2align 3
.L1055:
	vpand	(%rcx,%rdx,2), %xmm0, %xmm1
	vpand	16(%rcx,%rdx,2), %xmm0, %xmm2
	vpackuswb	%xmm2, %xmm1, %xmm1
	vmovdqu	%xmm1, (%rax,%rdx)
	addq	$16, %rdx
	cmpq	%rdx, %rsi
	jne	.L1055
	addq	112(%rsp), %rcx
	addq	72(%rsp), %rax
	movl	%ebx, (%rsp)
	movl	36(%rsp), %edx
.L1054:
	movzbl	(%rcx), %esi
	movb	%sil, (%rax)
	testl	%edx, %edx
	je	.L1044
	movzbl	2(%rcx), %esi
	movb	%sil, 1(%rax)
	cmpl	$1, %edx
	je	.L1044
	movzbl	4(%rcx), %esi
	movb	%sil, 2(%rax)
	cmpl	$2, %edx
	je	.L1044
	movzbl	6(%rcx), %esi
	movb	%sil, 3(%rax)
	cmpl	$3, %edx
	je	.L1044
	movzbl	8(%rcx), %esi
	movb	%sil, 4(%rax)
	cmpl	$4, %edx
	je	.L1044
	movzbl	10(%rcx), %esi
	movb	%sil, 5(%rax)
	cmpl	$5, %edx
	je	.L1044
	movzbl	12(%rcx), %esi
	movb	%sil, 6(%rax)
	cmpl	$6, %edx
	je	.L1044
	movzbl	14(%rcx), %esi
	movb	%sil, 7(%rax)
	cmpl	$7, %edx
	je	.L1044
	movzbl	16(%rcx), %esi
	movb	%sil, 8(%rax)
	cmpl	$8, %edx
	je	.L1044
	movzbl	18(%rcx), %esi
	movb	%sil, 9(%rax)
	cmpl	$9, %edx
	je	.L1044
	movzbl	20(%rcx), %esi
	movb	%sil, 10(%rax)
	cmpl	$10, %edx
	je	.L1044
	movzbl	22(%rcx), %esi
	movb	%sil, 11(%rax)
	cmpl	$11, %edx
	je	.L1044
	movzbl	24(%rcx), %esi
	movb	%sil, 12(%rax)
	cmpl	$12, %edx
	je	.L1044
	movzbl	26(%rcx), %esi
	movb	%sil, 13(%rax)
	cmpl	$13, %edx
	je	.L1044
	movzbl	28(%rcx), %esi
	movb	%sil, 14(%rax)
	cmpl	$14, %edx
	je	.L1044
	movzbl	30(%rcx), %edx
	movb	%dl, 15(%rax)
	jmp	.L1044
	.p2align 4
	.p2align 3
.L1041:
	movl	(%rsp), %ebx
	testl	%ebx, %ebx
	js	.L1044
	movq	%rcx, %rdx
	.p2align 4
	.p2align 3
.L1053:
	movzbl	(%rdx), %esi
	incq	%rdx
	movb	$-1, 3(%rax)
	addq	$4, %rax
	movb	%sil, -2(%rax)
	movb	%sil, -3(%rax)
	movb	%sil, -4(%rax)
	movl	%ecx, %esi
	subl	%edx, %esi
	addl	%ebx, %esi
	jns	.L1053
	movl	%ebx, (%rsp)
	jmp	.L1044
	.p2align 4
	.p2align 3
.L1042:
	movl	(%rsp), %r11d
	testl	%r11d, %r11d
	js	.L1044
	cmpb	$0, 34(%rsp)
	jne	.L1089
	vmovdqa	.LC70(%rip), %xmm9
	vmovdqa	.LC71(%rip), %xmm8
	movq	%rax, %rdx
	movq	%rcx, %rsi
	vmovdqa	.LC72(%rip), %xmm7
	vmovdqa	.LC73(%rip), %xmm6
	vmovdqa	.LC74(%rip), %xmm5
	vmovdqa	.LC75(%rip), %xmm4
	vmovdqa	.LC76(%rip), %xmm3
	vmovdqa	.LC77(%rip), %xmm2
	vmovdqa	.LC78(%rip), %xmm1
	movq	64(%rsp), %rbx
	leaq	(%rcx,%rbx), %r10
	movl	%r11d, %ebx
	.p2align 4
	.p2align 3
.L1050:
	vmovdqu	(%rsi), %xmm0
	addq	$16, %rsi
	addq	$48, %rdx
	vpshufb	%xmm8, %xmm0, %xmm11
	vpshufb	%xmm9, %xmm0, %xmm10
	vpblendvb	%xmm7, %xmm11, %xmm10, %xmm10
	vpshufb	%xmm5, %xmm0, %xmm11
	vmovdqu	%xmm10, -48(%rdx)
	vpshufb	%xmm6, %xmm0, %xmm10
	vpblendvb	%xmm4, %xmm11, %xmm10, %xmm10
	vmovdqu	%xmm10, -32(%rdx)
	vpshufb	%xmm3, %xmm0, %xmm10
	vpshufb	%xmm2, %xmm0, %xmm0
	vpshufb	%xmm1, %xmm10, %xmm10
	vpor	%xmm10, %xmm0, %xmm0
	vmovdqu	%xmm0, -16(%rdx)
	cmpq	%rsi, %r10
	jne	.L1050
	addq	48(%rsp), %rcx
	movl	%ebx, (%rsp)
	addq	40(%rsp), %rax
	movl	12(%rsp), %edx
	cmpl	%edx, 16(%rsp)
	je	.L1044
	movl	20(%rsp), %edx
.L1049:
	movzbl	(%rcx), %esi
	movb	%sil, 2(%rax)
	movb	%sil, 1(%rax)
	movb	%sil, (%rax)
	testl	%edx, %edx
	je	.L1044
	movzbl	1(%rcx), %esi
	movb	%sil, 5(%rax)
	movb	%sil, 4(%rax)
	movb	%sil, 3(%rax)
	cmpl	$1, %edx
	je	.L1044
	movzbl	2(%rcx), %esi
	movb	%sil, 8(%rax)
	movb	%sil, 7(%rax)
	movb	%sil, 6(%rax)
	cmpl	$2, %edx
	je	.L1044
	movzbl	3(%rcx), %esi
	movb	%sil, 11(%rax)
	movb	%sil, 10(%rax)
	movb	%sil, 9(%rax)
	cmpl	$3, %edx
	je	.L1044
	movzbl	4(%rcx), %esi
	movb	%sil, 14(%rax)
	movb	%sil, 13(%rax)
	movb	%sil, 12(%rax)
	cmpl	$4, %edx
	je	.L1044
	movzbl	5(%rcx), %esi
	movb	%sil, 17(%rax)
	movb	%sil, 16(%rax)
	movb	%sil, 15(%rax)
	cmpl	$5, %edx
	je	.L1044
	movzbl	6(%rcx), %esi
	movb	%sil, 20(%rax)
	movb	%sil, 19(%rax)
	movb	%sil, 18(%rax)
	cmpl	$6, %edx
	je	.L1044
	movzbl	7(%rcx), %esi
	movb	%sil, 23(%rax)
	movb	%sil, 22(%rax)
	movb	%sil, 21(%rax)
	cmpl	$7, %edx
	je	.L1044
	movzbl	8(%rcx), %esi
	movb	%sil, 26(%rax)
	movb	%sil, 25(%rax)
	movb	%sil, 24(%rax)
	cmpl	$8, %edx
	je	.L1044
	movzbl	9(%rcx), %esi
	movb	%sil, 29(%rax)
	movb	%sil, 28(%rax)
	movb	%sil, 27(%rax)
	cmpl	$9, %edx
	je	.L1044
	movzbl	10(%rcx), %esi
	movb	%sil, 32(%rax)
	movb	%sil, 31(%rax)
	movb	%sil, 30(%rax)
	cmpl	$10, %edx
	je	.L1044
	movzbl	11(%rcx), %esi
	movb	%sil, 35(%rax)
	movb	%sil, 34(%rax)
	movb	%sil, 33(%rax)
	cmpl	$11, %edx
	je	.L1044
	movzbl	12(%rcx), %esi
	movb	%sil, 38(%rax)
	movb	%sil, 37(%rax)
	movb	%sil, 36(%rax)
	cmpl	$12, %edx
	je	.L1044
	movzbl	13(%rcx), %esi
	movb	%sil, 41(%rax)
	movb	%sil, 40(%rax)
	movb	%sil, 39(%rax)
	cmpl	$13, %edx
	je	.L1044
	movzbl	14(%rcx), %edx
	movb	%dl, 44(%rax)
	movb	%dl, 43(%rax)
	movb	%dl, 42(%rax)
	jmp	.L1044
	.p2align 4
	.p2align 3
.L1043:
	movl	(%rsp), %ebx
	testl	%ebx, %ebx
	js	.L1044
	cmpb	$0, 34(%rsp)
	jne	.L1088
	movq	64(%rsp), %rsi
	xorl	%edx, %edx
	vpcmpeqd	%xmm1, %xmm1, %xmm1
	.p2align 4
	.p2align 3
.L1046:
	vmovdqu	(%rcx,%rdx), %xmm0
	vpunpcklbw	%xmm1, %xmm0, %xmm2
	vpunpckhbw	%xmm1, %xmm0, %xmm0
	vmovdqu	%xmm2, (%rax,%rdx,2)
	vmovdqu	%xmm0, 16(%rax,%rdx,2)
	addq	$16, %rdx
	cmpq	%rdx, %rsi
	jne	.L1046
	addq	48(%rsp), %rcx
	addq	24(%rsp), %rax
	movl	%ebx, (%rsp)
	movl	12(%rsp), %edx
	cmpl	%edx, 16(%rsp)
	je	.L1044
	movl	20(%rsp), %edx
.L1045:
	movzbl	(%rcx), %esi
	movb	$-1, 1(%rax)
	movb	%sil, (%rax)
	testl	%edx, %edx
	je	.L1044
	movzbl	1(%rcx), %esi
	movb	$-1, 3(%rax)
	movb	%sil, 2(%rax)
	cmpl	$1, %edx
	je	.L1044
	movzbl	2(%rcx), %esi
	movb	$-1, 5(%rax)
	movb	%sil, 4(%rax)
	cmpl	$2, %edx
	je	.L1044
	movzbl	3(%rcx), %esi
	movb	$-1, 7(%rax)
	movb	%sil, 6(%rax)
	cmpl	$3, %edx
	je	.L1044
	movzbl	4(%rcx), %esi
	movb	$-1, 9(%rax)
	movb	%sil, 8(%rax)
	cmpl	$4, %edx
	je	.L1044
	movzbl	5(%rcx), %esi
	movb	$-1, 11(%rax)
	movb	%sil, 10(%rax)
	cmpl	$5, %edx
	je	.L1044
	movzbl	6(%rcx), %esi
	movb	$-1, 13(%rax)
	movb	%sil, 12(%rax)
	cmpl	$6, %edx
	je	.L1044
	movzbl	7(%rcx), %esi
	movb	$-1, 15(%rax)
	movb	%sil, 14(%rax)
	cmpl	$7, %edx
	je	.L1044
	movzbl	8(%rcx), %esi
	movb	$-1, 17(%rax)
	movb	%sil, 16(%rax)
	cmpl	$8, %edx
	je	.L1044
	movzbl	9(%rcx), %esi
	movb	$-1, 19(%rax)
	movb	%sil, 18(%rax)
	cmpl	$9, %edx
	je	.L1044
	movzbl	10(%rcx), %esi
	movb	$-1, 21(%rax)
	movb	%sil, 20(%rax)
	cmpl	$10, %edx
	je	.L1044
	movzbl	11(%rcx), %esi
	movb	$-1, 23(%rax)
	movb	%sil, 22(%rax)
	cmpl	$11, %edx
	je	.L1044
	movzbl	12(%rcx), %esi
	movb	$-1, 25(%rax)
	movb	%sil, 24(%rax)
	cmpl	$12, %edx
	je	.L1044
	movzbl	13(%rcx), %esi
	movb	$-1, 27(%rax)
	movb	%sil, 26(%rax)
	cmpl	$13, %edx
	je	.L1044
	movzbl	14(%rcx), %edx
	movb	$-1, 29(%rax)
	movb	%dl, 28(%rax)
	jmp	.L1044
.L1088:
	movl	%ebx, %edx
	jmp	.L1045
.L1097:
	movl	%r11d, %edx
	jmp	.L1078
.L1098:
	movl	%r11d, %edx
	jmp	.L1082
.L1089:
	movl	%r11d, %edx
	jmp	.L1049
.L1090:
	movl	%ebx, %edx
	jmp	.L1054
.L1091:
	movl	%ebx, %edx
	jmp	.L1056
.L1092:
	movl	%r11d, %edx
	jmp	.L1058
.L1094:
	movl	%r11d, %edx
	jmp	.L1068
.L1095:
	movl	%r11d, %edx
	jmp	.L1072
.L1093:
	movl	(%rsp), %r13d
	movl	12(%rsp), %ebx
	xorl	%esi, %esi
	jmp	.L1062
.L1096:
	movl	%r11d, %edx
	jmp	.L1076
	.p2align 4
	.p2align 3
.L1030:
	leaq	__PRETTY_FUNCTION__.43(%rip), %rcx
	movl	$1770, %edx
	leaq	.LC14(%rip), %rsi
	leaq	.LC9(%rip), %rdi
	call	__assert_fail@PLT
.L1573:
	leaq	__PRETTY_FUNCTION__.43(%rip), %rcx
	movl	$1741, %edx
	leaq	.LC14(%rip), %rsi
	leaq	.LC15(%rip), %rdi
	call	__assert_fail@PLT
	.cfi_endproc
.LFE635:
	.size	stbi__convert_format, .-stbi__convert_format
	.p2align 4
	.type	stbi__gif_parse_colortable, @function
stbi__gif_parse_colortable:
.LFB747:
	.cfi_startproc
	pushq	%r15
	.cfi_def_cfa_offset 16
	.cfi_offset 15, -16
	pushq	%r14
	.cfi_def_cfa_offset 24
	.cfi_offset 14, -24
	leaq	57(%rdi), %rax
	movl	%ecx, %r15d
	pushq	%r13
	.cfi_def_cfa_offset 32
	.cfi_offset 13, -32
	pushq	%r12
	.cfi_def_cfa_offset 40
	.cfi_offset 12, -40
	movslq	%edx, %r14
	movq	%rsi, %r12
	pushq	%rbp
	.cfi_def_cfa_offset 48
	.cfi_offset 6, -48
	pushq	%rbx
	.cfi_def_cfa_offset 56
	.cfi_offset 3, -56
	xorl	%ebp, %ebp
	movq	%rdi, %rbx
	subq	$24, %rsp
	.cfi_def_cfa_offset 80
	leaq	56(%rdi), %r13
	movq	%rax, (%rsp)
	jmp	.L1587
	.p2align 4
	.p2align 3
.L1575:
	movl	48(%rbx), %ecx
	xorl	%r8d, %r8d
	testl	%ecx, %ecx
	jne	.L1593
.L1576:
	movb	%r8b, 2(%r12,%rbp,4)
	movq	192(%rbx), %rax
	cmpq	200(%rbx), %rax
	jb	.L1594
	movl	48(%rbx), %edx
	xorl	%r8d, %r8d
	testl	%edx, %edx
	jne	.L1595
.L1580:
	movb	%r8b, 1(%r12,%rbp,4)
	movq	192(%rbx), %rax
	cmpq	200(%rbx), %rax
	jb	.L1596
	movl	48(%rbx), %eax
	xorl	%r8d, %r8d
	testl	%eax, %eax
	jne	.L1597
.L1584:
	cmpl	%ebp, %r15d
	movb	%r8b, (%r12,%rbp,4)
	setne	%al
	negl	%eax
	movb	%al, 3(%r12,%rbp,4)
	incq	%rbp
	cmpq	%rbp, %r14
	je	.L1598
.L1587:
	movq	192(%rbx), %rax
	cmpq	200(%rbx), %rax
	jnb	.L1575
	leaq	1(%rax), %rdx
	movq	%rdx, 192(%rbx)
	movzbl	(%rax), %r8d
	jmp	.L1576
	.p2align 4
	.p2align 3
.L1596:
	leaq	1(%rax), %rdx
	movq	%rdx, 192(%rbx)
	movzbl	(%rax), %r8d
	jmp	.L1584
	.p2align 4
	.p2align 3
.L1594:
	leaq	1(%rax), %rdx
	movq	%rdx, 192(%rbx)
	movzbl	(%rax), %r8d
	jmp	.L1580
	.p2align 4
	.p2align 3
.L1595:
	movl	52(%rbx), %edx
	movq	40(%rbx), %rdi
	movb	%r8b, 15(%rsp)
	movq	%r13, %rsi
	call	*16(%rbx)
	movq	192(%rbx), %rdx
	subq	208(%rbx), %rdx
	addl	%edx, 184(%rbx)
	testl	%eax, %eax
	jne	.L1581
	movq	(%rsp), %rax
	movzbl	15(%rsp), %r8d
	movl	$0, 48(%rbx)
	movb	$0, 56(%rbx)
.L1582:
	vmovq	(%rsp), %xmm2
	vpinsrq	$1, %rax, %xmm2, %xmm0
	vmovdqu	%xmm0, 192(%rbx)
	jmp	.L1580
	.p2align 4
	.p2align 3
.L1593:
	movl	52(%rbx), %edx
	movq	40(%rbx), %rdi
	movb	%r8b, 15(%rsp)
	movq	%r13, %rsi
	call	*16(%rbx)
	movq	192(%rbx), %rdx
	subq	208(%rbx), %rdx
	addl	%edx, 184(%rbx)
	testl	%eax, %eax
	jne	.L1577
	movq	(%rsp), %rax
	movzbl	15(%rsp), %r8d
	movl	$0, 48(%rbx)
	movb	$0, 56(%rbx)
.L1578:
	vmovq	(%rsp), %xmm1
	vpinsrq	$1, %rax, %xmm1, %xmm0
	vmovdqu	%xmm0, 192(%rbx)
	jmp	.L1576
	.p2align 4
	.p2align 3
.L1597:
	movl	52(%rbx), %edx
	movq	40(%rbx), %rdi
	movb	%r8b, 15(%rsp)
	movq	%r13, %rsi
	call	*16(%rbx)
	movq	192(%rbx), %rdx
	subq	208(%rbx), %rdx
	addl	%edx, 184(%rbx)
	testl	%eax, %eax
	jne	.L1585
	movq	(%rsp), %rax
	movzbl	15(%rsp), %r8d
	movl	$0, 48(%rbx)
	movb	$0, 56(%rbx)
.L1586:
	vmovq	(%rsp), %xmm3
	vpinsrq	$1, %rax, %xmm3, %xmm0
	vmovdqu	%xmm0, 192(%rbx)
	jmp	.L1584
	.p2align 4
	.p2align 3
.L1598:
	addq	$24, %rsp
	.cfi_remember_state
	.cfi_def_cfa_offset 56
	popq	%rbx
	.cfi_def_cfa_offset 48
	popq	%rbp
	.cfi_def_cfa_offset 40
	popq	%r12
	.cfi_def_cfa_offset 32
	popq	%r13
	.cfi_def_cfa_offset 24
	popq	%r14
	.cfi_def_cfa_offset 16
	popq	%r15
	.cfi_def_cfa_offset 8
	ret
	.p2align 4
	.p2align 3
.L1581:
	.cfi_restore_state
	cltq
	movzbl	56(%rbx), %r8d
	addq	%r13, %rax
	jmp	.L1582
	.p2align 4
	.p2align 3
.L1577:
	cltq
	movzbl	56(%rbx), %r8d
	addq	%r13, %rax
	jmp	.L1578
	.p2align 4
	.p2align 3
.L1585:
	cltq
	movzbl	56(%rbx), %r8d
	addq	%r13, %rax
	jmp	.L1586
	.cfi_endproc
.LFE747:
	.size	stbi__gif_parse_colortable, .-stbi__gif_parse_colortable
	.p2align 4
	.type	stbi__pnm_skip_whitespace, @function
stbi__pnm_skip_whitespace:
.LFB770:
	.cfi_startproc
	pushq	%r14
	.cfi_def_cfa_offset 16
	.cfi_offset 14, -16
	pushq	%r13
	.cfi_def_cfa_offset 24
	.cfi_offset 13, -24
	pushq	%r12
	.cfi_def_cfa_offset 32
	.cfi_offset 12, -32
	leaq	57(%rdi), %r12
	pushq	%rbp
	.cfi_def_cfa_offset 40
	.cfi_offset 6, -40
	movq	%rsi, %rbp
	pushq	%rbx
	.cfi_def_cfa_offset 48
	.cfi_offset 3, -48
	movq	%rdi, %rbx
	.p2align 4
	.p2align 3
.L1600:
	leaq	56(%rbx), %r13
.L1601:
	cmpq	$0, 16(%rbx)
	je	.L1650
	movq	40(%rbx), %rdi
	call	*32(%rbx)
	testl	%eax, %eax
	je	.L1610
	movl	48(%rbx), %esi
	testl	%esi, %esi
	je	.L1615
	movq	192(%rbx), %rcx
	movq	%rcx, %rdx
	cmpq	200(%rbx), %rcx
	jnb	.L1651
.L1608:
	movzbl	0(%rbp), %eax
	cmpb	$9, %al
	je	.L1633
	cmpb	$32, %al
	je	.L1633
	subl	$10, %eax
	cmpb	$3, %al
	jbe	.L1652
.L1615:
	cmpq	$0, 16(%rbx)
	je	.L1613
.L1612:
	movq	40(%rbx), %rdi
	call	*32(%rbx)
	testl	%eax, %eax
	je	.L1617
	movl	48(%rbx), %ecx
	testl	%ecx, %ecx
	je	.L1647
.L1613:
	movq	200(%rbx), %rax
	cmpq	%rax, 192(%rbx)
	jnb	.L1647
.L1617:
	cmpb	$35, 0(%rbp)
	jne	.L1647
	cmpq	$0, 16(%rbx)
	leaq	56(%rbx), %r14
	je	.L1628
	movq	40(%rbx), %rdi
	call	*32(%rbx)
	testl	%eax, %eax
	je	.L1627
.L1653:
	movl	48(%rbx), %eax
	testl	%eax, %eax
	je	.L1600
.L1628:
	movq	192(%rbx), %rax
	cmpq	200(%rbx), %rax
	jnb	.L1600
	movzbl	0(%rbp), %edx
	cmpb	$10, %dl
	je	.L1600
	cmpb	$13, %dl
	je	.L1600
.L1631:
	leaq	1(%rax), %rdx
	movq	%rdx, 192(%rbx)
	movzbl	(%rax), %r13d
.L1621:
	movb	%r13b, 0(%rbp)
	cmpq	$0, 16(%rbx)
	je	.L1628
	movq	40(%rbx), %rdi
	call	*32(%rbx)
	testl	%eax, %eax
	jne	.L1653
.L1627:
	movzbl	0(%rbp), %eax
	cmpb	$10, %al
	je	.L1600
	cmpb	$13, %al
	je	.L1600
	movq	192(%rbx), %rax
	cmpq	200(%rbx), %rax
	jb	.L1631
	movl	48(%rbx), %edx
	xorl	%r13d, %r13d
	testl	%edx, %edx
	je	.L1621
	movl	52(%rbx), %edx
	movq	40(%rbx), %rdi
	movq	%r14, %rsi
	call	*16(%rbx)
	movq	192(%rbx), %rdx
	subq	208(%rbx), %rdx
	addl	%edx, 184(%rbx)
	testl	%eax, %eax
	jne	.L1622
	movl	$0, 48(%rbx)
	movq	%r12, %rax
	movb	$0, 56(%rbx)
.L1623:
	vmovq	%r12, %xmm1
	vpinsrq	$1, %rax, %xmm1, %xmm0
	vmovdqu	%xmm0, 192(%rbx)
	jmp	.L1621
	.p2align 4
	.p2align 3
.L1650:
	movq	192(%rbx), %rcx
	movq	%rcx, %rdx
	cmpq	%rcx, 200(%rbx)
	ja	.L1608
.L1647:
	popq	%rbx
	.cfi_remember_state
	.cfi_def_cfa_offset 40
	popq	%rbp
	.cfi_def_cfa_offset 32
	popq	%r12
	.cfi_def_cfa_offset 24
	popq	%r13
	.cfi_def_cfa_offset 16
	popq	%r14
	.cfi_def_cfa_offset 8
	ret
	.p2align 4
	.p2align 3
.L1610:
	.cfi_restore_state
	movzbl	0(%rbp), %eax
	cmpb	$32, %al
	je	.L1614
	cmpb	$9, %al
	jne	.L1654
.L1614:
	movq	192(%rbx), %rdx
	cmpq	200(%rbx), %rdx
	jb	.L1633
	movl	48(%rbx), %edi
	xorl	%r14d, %r14d
	testl	%edi, %edi
	jne	.L1655
.L1603:
	movb	%r14b, 0(%rbp)
	jmp	.L1601
.L1652:
	movq	%rcx, %rdx
	.p2align 4
	.p2align 3
.L1633:
	leaq	1(%rdx), %rax
	movq	%rax, 192(%rbx)
	movzbl	(%rdx), %r14d
	jmp	.L1603
	.p2align 4
	.p2align 3
.L1655:
	movl	52(%rbx), %edx
	movq	40(%rbx), %rdi
	movq	%r13, %rsi
	call	*16(%rbx)
	movq	192(%rbx), %rdx
	subq	208(%rbx), %rdx
	addl	%edx, 184(%rbx)
	testl	%eax, %eax
	jne	.L1604
	movl	$0, 48(%rbx)
	movq	%r12, %rax
	movb	$0, 56(%rbx)
.L1605:
	vmovq	%r12, %xmm2
	vpinsrq	$1, %rax, %xmm2, %xmm0
	vmovdqu	%xmm0, 192(%rbx)
	jmp	.L1603
	.p2align 4
	.p2align 3
.L1622:
	cltq
	movzbl	56(%rbx), %r13d
	addq	%r14, %rax
	jmp	.L1623
	.p2align 4
	.p2align 3
.L1654:
	subl	$10, %eax
	cmpb	$3, %al
	jbe	.L1614
	jmp	.L1615
	.p2align 4
	.p2align 3
.L1604:
	cltq
	movzbl	56(%rbx), %r14d
	addq	%r13, %rax
	jmp	.L1605
	.p2align 4
	.p2align 3
.L1651:
	cmpq	$0, 16(%rbx)
	jne	.L1612
	jmp	.L1647
	.cfi_endproc
.LFE770:
	.size	stbi__pnm_skip_whitespace, .-stbi__pnm_skip_whitespace
	.section	.rodata.str1.8
	.align 8
.LC92:
	.string	"out_n == s->img_n || out_n == s->img_n+1"
	.section	.rodata.str1.1
.LC93:
	.string	"too large"
.LC94:
	.string	"not enough pixels"
.LC95:
	.string	"invalid filter"
.LC96:
	.string	"invalid width"
.LC97:
	.string	"img_n+1 == out_n"
.LC102:
	.string	"img_n == 3"
	.text
	.p2align 4
	.type	stbi__create_png_image_raw, @function
stbi__create_png_image_raw:
.LFB705:
	.cfi_startproc
	pushq	%r15
	.cfi_def_cfa_offset 16
	.cfi_offset 15, -16
	pushq	%r14
	.cfi_def_cfa_offset 24
	.cfi_offset 14, -24
	movl	%ecx, %eax
	pushq	%r13
	.cfi_def_cfa_offset 32
	.cfi_offset 13, -32
	pushq	%r12
	.cfi_def_cfa_offset 40
	.cfi_offset 12, -40
	pushq	%rbp
	.cfi_def_cfa_offset 48
	.cfi_offset 6, -48
	pushq	%rbx
	.cfi_def_cfa_offset 56
	.cfi_offset 3, -56
	movq	%rsi, %rbp
	movl	%edx, %ebx
	subq	$568, %rsp
	.cfi_def_cfa_offset 624
	cmpl	$16, 624(%rsp)
	movq	%rdi, 184(%rsp)
	movl	%ecx, 172(%rsp)
	movl	%r8d, 216(%rsp)
	movl	%r9d, 212(%rsp)
	je	.L2164
	movl	%ecx, 256(%rsp)
	movl	$1, %r12d
	movl	$1, %r14d
	movq	%rdi, %rax
.L1657:
	movq	(%rax), %rax
	movl	172(%rsp), %edi
	movl	8(%rax), %eax
	movl	%eax, 220(%rsp)
	cmpl	%eax, %edi
	je	.L1658
	incl	%eax
	cmpl	%edi, %eax
	jne	.L2165
.L1658:
	movl	216(%rsp), %edi
	movl	212(%rsp), %esi
	movl	%edi, %eax
	orl	%esi, %eax
	js	.L1659
	movl	%edi, 232(%rsp)
	testl	%esi, %esi
	je	.L1660
	movl	$2147483647, %eax
	cltd
	idivl	%esi
	cmpl	%eax, %edi
	jle	.L1660
.L1659:
	movq	184(%rsp), %rax
	movq	$0, 24(%rax)
.L1662:
	leaq	.LC16(%rip), %rax
	movq	%rax, %fs:stbi__g_failure_reason@tpoff
	xorl	%eax, %eax
	jmp	.L1656
	.p2align 4
	.p2align 3
.L1660:
	movl	256(%rsp), %eax
	testl	%eax, %eax
	js	.L1659
	movl	212(%rsp), %edi
	movl	%eax, %esi
	imull	216(%rsp), %edi
	testl	%eax, %eax
	je	.L1661
	movl	$2147483647, %eax
	cltd
	idivl	%esi
	cmpl	%eax, %edi
	jg	.L1659
.L1661:
	imull	256(%rsp), %edi
	movslq	%edi, %rdi
	call	malloc@PLT
	movq	%rax, %rdi
	movq	184(%rsp), %rax
	movq	%rdi, 24(%rax)
	testq	%rdi, %rdi
	je	.L1662
	movl	220(%rsp), %esi
	testl	%esi, %esi
	js	.L1665
	movl	216(%rsp), %edx
	testl	%edx, %edx
	je	.L1666
	movl	$2147483647, %eax
	movl	%edx, %ecx
	cltd
	idivl	%ecx
	cmpl	%eax, %esi
	jle	.L1666
.L1665:
	leaq	.LC93(%rip), %rax
	movq	%rax, %fs:stbi__g_failure_reason@tpoff
	xorl	%eax, %eax
.L1656:
	addq	$568, %rsp
	.cfi_remember_state
	.cfi_def_cfa_offset 56
	popq	%rbx
	.cfi_def_cfa_offset 48
	popq	%rbp
	.cfi_def_cfa_offset 40
	popq	%r12
	.cfi_def_cfa_offset 32
	popq	%r13
	.cfi_def_cfa_offset 24
	popq	%r14
	.cfi_def_cfa_offset 16
	popq	%r15
	.cfi_def_cfa_offset 8
	ret
.L1666:
	.cfi_restore_state
	movl	624(%rsp), %r15d
	testl	%r15d, %r15d
	js	.L1665
	movl	220(%rsp), %esi
	imull	216(%rsp), %esi
	movl	624(%rsp), %r13d
	movl	%esi, 404(%rsp)
	testl	%r13d, %r13d
	je	.L1667
	movl	$2147483647, %eax
	cltd
	idivl	624(%rsp)
	cmpl	%eax, %esi
	jg	.L1665
	imull	624(%rsp), %esi
	cmpl	$2147483640, %esi
	jg	.L1665
.L1667:
	movl	220(%rsp), %eax
	imull	624(%rsp), %eax
	movl	212(%rsp), %esi
	imull	216(%rsp), %eax
	addl	$7, %eax
	shrl	$3, %eax
	movl	%eax, 224(%rsp)
	incl	%eax
	imull	%esi, %eax
	cmpl	%ebx, %eax
	ja	.L1668
	testl	%esi, %esi
	je	.L1670
	movl	172(%rsp), %eax
	movl	216(%rsp), %esi
	movl	$0, 208(%rsp)
	movl	$0, 168(%rsp)
	vmovdqa	.LC13(%rip), %xmm14
	movl	%eax, %ebx
	imull	%esi, %ebx
	imull	%ebx, %r12d
	movl	%ebx, 292(%rsp)
	movl	220(%rsp), %ebx
	movl	%r12d, 176(%rsp)
	imull	%ebx, %r14d
	cmpl	$7, 624(%rsp)
	movl	%r14d, %r15d
	movq	%rbp, %r14
	setle	%dl
	cmpl	%ebx, %eax
	sete	%al
	orl	%eax, %edx
	leal	1(%rbx), %eax
	movl	%eax, 376(%rsp)
	leal	-1(%rsi), %eax
	movb	%dl, 288(%rsp)
	movl	%eax, 260(%rsp)
	.p2align 4
	.p2align 3
.L1843:
	movl	208(%rsp), %eax
	leaq	1(%r14), %rbx
	movzbl	(%r14), %ecx
	movq	%rax, 192(%rsp)
	addq	%rax, %rdi
	cmpl	$4, %ecx
	jg	.L2166
	cmpl	$7, 624(%rsp)
	jg	.L1672
	movl	224(%rsp), %esi
	cmpl	%esi, 216(%rsp)
	jb	.L2167
	movl	292(%rsp), %eax
	movl	176(%rsp), %edx
	movl	%esi, 232(%rsp)
	movl	$1, %r15d
	movl	168(%rsp), %r11d
	subl	%esi, %eax
	addq	%rax, %rdi
	movq	%rdi, %rax
	subq	%rdx, %rax
	testl	%r11d, %r11d
	jne	.L1674
	leaq	first_row_filter(%rip), %rdx
	movzbl	(%rdx,%rcx), %ecx
.L1674:
	movq	%rbx, %r9
	movq	%rdi, %r8
	xorl	%esi, %esi
	movl	%ecx, %r11d
	leaq	.L1679(%rip), %r10
	.p2align 4
	.p2align 3
.L1686:
	cmpl	$6, %ecx
	ja	.L1677
	movslq	(%r10,%r11,4), %rdx
	addq	%r10, %rdx
	notrack jmp	*%rdx
	.section	.rodata
	.align 4
	.align 4
.L1679:
	.long	.L1678-.L1679
	.long	.L1678-.L1679
	.long	.L1681-.L1679
	.long	.L1682-.L1679
	.long	.L1681-.L1679
	.long	.L1678-.L1679
	.long	.L1678-.L1679
	.text
	.p2align 4
	.p2align 3
.L1678:
	movzbl	(%r9), %edx
	movb	%dl, (%r8)
.L1677:
	incq	%rsi
	incq	%r9
	incq	%r8
	cmpl	%esi, %r15d
	jg	.L1686
	cmpl	$8, 624(%rsp)
	je	.L2168
.L1687:
	cmpl	$16, 624(%rsp)
	je	.L2169
	addq	$2, %r14
	incq	%rdi
	incq	%rax
.L1689:
	cmpb	$0, 288(%rsp)
	je	.L1692
.L2171:
	movl	232(%rsp), %ebx
	leal	-1(%rbx), %edx
	imull	%r15d, %edx
	movslq	%edx, %rbx
	movq	%rbx, (%rsp)
	cmpl	$6, %ecx
	ja	.L1693
	leaq	.L1695(%rip), %rsi
	movl	%ecx, %ecx
	movslq	(%rsi,%rcx,4), %rcx
	addq	%rsi, %rcx
	notrack jmp	*%rcx
	.section	.rodata
	.align 4
	.align 4
.L1695:
	.long	.L1701-.L1695
	.long	.L1700-.L1695
	.long	.L1699-.L1695
	.long	.L1698-.L1695
	.long	.L1697-.L1695
	.long	.L1696-.L1695
	.long	.L1694-.L1695
	.text
	.p2align 4
	.p2align 3
.L1681:
	movzbl	(%rax,%rsi), %edx
	addb	(%r9), %dl
	movb	%dl, (%r8)
	jmp	.L1677
	.p2align 4
	.p2align 3
.L1682:
	movzbl	(%rax,%rsi), %edx
	shrb	%dl
	addb	(%r9), %dl
	movb	%dl, (%r8)
	jmp	.L1677
.L1696:
	testl	%edx, %edx
	jle	.L1693
	movl	%r15d, %esi
	negl	%esi
	movslq	%esi, %rsi
	movq	%rsi, %rax
	notq	%rax
	cmpq	$14, %rax
	leal	-1(%rdx), %eax
	seta	%cl
	cmpl	$14, %eax
	seta	%al
	testb	%al, %cl
	je	.L1742
	leaq	1(%r14), %rcx
	movq	%rdi, %rax
	subq	%rcx, %rax
	cmpq	$14, %rax
	jbe	.L1742
	vmovdqa	.LC11(%rip), %xmm2
	movl	%edx, %ecx
	addq	%rdi, %rsi
	xorl	%eax, %eax
	shrl	$4, %ecx
	salq	$4, %rcx
	.p2align 4
	.p2align 3
.L1743:
	vmovdqu	(%rsi,%rax), %xmm3
	vpsrlw	$1, %xmm3, %xmm0
	vpand	%xmm0, %xmm2, %xmm0
	vpaddb	(%r14,%rax), %xmm0, %xmm0
	vmovdqu	%xmm0, (%rdi,%rax)
	addq	$16, %rax
	cmpq	%rax, %rcx
	jne	.L1743
	movl	%edx, %esi
	andl	$-16, %esi
	testb	$15, %dl
	je	.L1693
	movl	%esi, %eax
	movl	%esi, %ecx
	subl	%r15d, %eax
	cltq
	movzbl	(%rdi,%rax), %eax
	shrb	%al
	addb	(%r14,%rcx), %al
	movb	%al, (%rdi,%rcx)
	leal	1(%rsi), %eax
	cmpl	%eax, %edx
	jle	.L1693
	movslq	%eax, %rcx
	subl	%r15d, %eax
	cltq
	movzbl	(%rdi,%rax), %eax
	shrb	%al
	addb	(%r14,%rcx), %al
	movb	%al, (%rdi,%rcx)
	leal	2(%rsi), %eax
	cmpl	%eax, %edx
	jle	.L1693
	movslq	%eax, %rcx
	subl	%r15d, %eax
	cltq
	movzbl	(%rdi,%rax), %eax
	shrb	%al
	addb	(%r14,%rcx), %al
	movb	%al, (%rdi,%rcx)
	leal	3(%rsi), %eax
	cmpl	%eax, %edx
	jle	.L1693
	movslq	%eax, %rcx
	subl	%r15d, %eax
	cltq
	movzbl	(%rdi,%rax), %eax
	shrb	%al
	addb	(%r14,%rcx), %al
	movb	%al, (%rdi,%rcx)
	leal	4(%rsi), %eax
	cmpl	%eax, %edx
	jle	.L1693
	movslq	%eax, %rcx
	subl	%r15d, %eax
	cltq
	movzbl	(%rdi,%rax), %eax
	shrb	%al
	addb	(%r14,%rcx), %al
	movb	%al, (%rdi,%rcx)
	leal	5(%rsi), %eax
	cmpl	%eax, %edx
	jle	.L1693
	movslq	%eax, %rcx
	subl	%r15d, %eax
	cltq
	movzbl	(%rdi,%rax), %eax
	shrb	%al
	addb	(%r14,%rcx), %al
	movb	%al, (%rdi,%rcx)
	leal	6(%rsi), %eax
	cmpl	%eax, %edx
	jle	.L1693
	movslq	%eax, %rcx
	subl	%r15d, %eax
	cltq
	movzbl	(%rdi,%rax), %eax
	shrb	%al
	addb	(%r14,%rcx), %al
	movb	%al, (%rdi,%rcx)
	leal	7(%rsi), %eax
	cmpl	%eax, %edx
	jle	.L1693
	movslq	%eax, %rcx
	subl	%r15d, %eax
	cltq
	movzbl	(%rdi,%rax), %eax
	shrb	%al
	addb	(%r14,%rcx), %al
	movb	%al, (%rdi,%rcx)
	leal	8(%rsi), %eax
	cmpl	%eax, %edx
	jle	.L1693
	movslq	%eax, %rcx
	subl	%r15d, %eax
	cltq
	movzbl	(%rdi,%rax), %eax
	shrb	%al
	addb	(%r14,%rcx), %al
	movb	%al, (%rdi,%rcx)
	leal	9(%rsi), %eax
	cmpl	%eax, %edx
	jle	.L1693
	movslq	%eax, %rcx
	subl	%r15d, %eax
	cltq
	movzbl	(%rdi,%rax), %eax
	shrb	%al
	addb	(%r14,%rcx), %al
	movb	%al, (%rdi,%rcx)
	leal	10(%rsi), %eax
	cmpl	%eax, %edx
	jle	.L1693
	movslq	%eax, %rcx
	subl	%r15d, %eax
	cltq
	movzbl	(%rdi,%rax), %eax
	shrb	%al
	addb	(%r14,%rcx), %al
	movb	%al, (%rdi,%rcx)
	leal	11(%rsi), %eax
	cmpl	%eax, %edx
	jle	.L1693
	movslq	%eax, %rcx
	subl	%r15d, %eax
	cltq
	movzbl	(%rdi,%rax), %eax
	shrb	%al
	addb	(%r14,%rcx), %al
	movb	%al, (%rdi,%rcx)
	leal	12(%rsi), %eax
	cmpl	%eax, %edx
	jle	.L1693
	movslq	%eax, %rcx
	subl	%r15d, %eax
	cltq
	movzbl	(%rdi,%rax), %eax
	shrb	%al
	addb	(%r14,%rcx), %al
	movb	%al, (%rdi,%rcx)
	leal	13(%rsi), %eax
	cmpl	%eax, %edx
	jle	.L1693
	movslq	%eax, %rcx
	subl	%r15d, %eax
	cltq
	movzbl	(%rdi,%rax), %eax
	shrb	%al
	addb	(%r14,%rcx), %al
	movb	%al, (%rdi,%rcx)
	leal	14(%rsi), %eax
	cmpl	%eax, %edx
	jle	.L1693
	movslq	%eax, %rdx
	subl	%r15d, %eax
	cltq
	movzbl	(%rdi,%rax), %eax
	shrb	%al
	addb	(%r14,%rdx), %al
	movb	%al, (%rdi,%rdx)
	jmp	.L1693
.L1697:
	testl	%edx, %edx
	jle	.L1693
	movl	%r15d, %esi
	movq	%rdi, %rcx
	leaq	1(%r14), %r9
	negl	%esi
	movslq	%esi, %rsi
	leaq	1(%rax,%rsi), %r8
	subq	%r8, %rcx
	cmpq	$14, %rcx
	movq	%rdi, %rcx
	seta	%r8b
	subq	%r9, %rcx
	movq	%rsi, %r9
	cmpq	$14, %rcx
	notq	%r9
	seta	%cl
	andl	%ecx, %r8d
	leal	-1(%rdx), %ecx
	cmpl	$14, %ecx
	seta	%cl
	cmpq	$14, %r9
	seta	%r9b
	andl	%r9d, %ecx
	testb	%cl, %r8b
	je	.L1733
	leaq	1(%rax), %r8
	movq	%rdi, %rcx
	subq	%r8, %rcx
	cmpq	$14, %rcx
	jbe	.L1733
	vmovdqa	.LC2(%rip), %xmm3
	vmovdqa	.LC13(%rip), %xmm13
	movl	%edx, %ecx
	leaq	(%rax,%rsi), %r13
	shrl	$4, %ecx
	leaq	(%rdi,%rsi), %r12
	movq	%rcx, %rsi
	xorl	%ecx, %ecx
	salq	$4, %rsi
	vmovdqa	%xmm3, 240(%rsp)
	.p2align 4
	.p2align 3
.L1734:
	vmovdqu	0(%r13,%rcx), %xmm3
	vmovdqu	(%r12,%rcx), %xmm7
	vpmovzxbw	%xmm3, %xmm8
	vmovdqu	0(%r13,%rcx), %xmm3
	vpmovzxbw	%xmm7, %xmm12
	vmovdqu	(%r12,%rcx), %xmm7
	vpmovzxwd	%xmm8, %xmm9
	vpsrldq	$8, %xmm8, %xmm8
	vpmovzxwd	%xmm12, %xmm15
	vpsrldq	$8, %xmm12, %xmm12
	vpmovzxwd	%xmm12, %xmm12
	vpmovzxwd	%xmm8, %xmm8
	vpsrldq	$8, %xmm3, %xmm0
	vmovdqu	(%rax,%rcx), %xmm3
	vpmovzxbw	%xmm0, %xmm0
	vpsrldq	$8, %xmm7, %xmm10
	vpmovzxbw	%xmm10, %xmm10
	vpmovzxwd	%xmm0, %xmm4
	vpsrldq	$8, %xmm0, %xmm0
	vpmovzxwd	%xmm10, %xmm11
	vpmovzxwd	%xmm0, %xmm5
	vpsrldq	$8, %xmm10, %xmm10
	vpmovzxwd	%xmm10, %xmm10
	vmovdqa	%xmm5, 16(%rsp)
	vmovdqa	%xmm4, 32(%rsp)
	vpmovzxbw	%xmm3, %xmm2
	vmovdqu	(%rax,%rcx), %xmm3
	vpmovzxwd	%xmm2, %xmm0
	vpsrldq	$8, %xmm2, %xmm2
	vpmovzxwd	%xmm2, %xmm2
	vpaddd	%xmm15, %xmm0, %xmm6
	vpaddd	%xmm12, %xmm2, %xmm7
	vpsubd	%xmm9, %xmm6, %xmm6
	vpsubd	%xmm8, %xmm7, %xmm7
	vpsubd	%xmm15, %xmm6, %xmm15
	vpsubd	%xmm12, %xmm7, %xmm12
	vpsubd	%xmm0, %xmm6, %xmm0
	vpsubd	%xmm2, %xmm7, %xmm2
	vpsubd	%xmm9, %xmm6, %xmm6
	vpsubd	%xmm8, %xmm7, %xmm7
	vpabsd	%xmm0, %xmm0
	vpabsd	%xmm7, %xmm9
	vpabsd	%xmm2, %xmm2
	vpabsd	%xmm6, %xmm6
	vpabsd	%xmm15, %xmm15
	vmovdqa	%xmm9, 80(%rsp)
	vpsrldq	$8, %xmm3, %xmm1
	vpmovzxbw	%xmm1, %xmm1
	vpminsd	%xmm6, %xmm0, %xmm8
	vpabsd	%xmm12, %xmm12
	vpmovzxwd	%xmm1, %xmm3
	vpsrldq	$8, %xmm1, %xmm1
	vpmovzxwd	%xmm1, %xmm1
	vmovdqa	%xmm15, 64(%rsp)
	vpaddd	%xmm11, %xmm3, %xmm5
	vpsubd	%xmm4, %xmm5, %xmm5
	vpaddd	%xmm10, %xmm1, %xmm4
	vpsubd	16(%rsp), %xmm4, %xmm4
	vpsubd	%xmm11, %xmm5, %xmm11
	vpsubd	%xmm3, %xmm5, %xmm3
	vpsubd	32(%rsp), %xmm5, %xmm5
	vpabsd	%xmm3, %xmm3
	vpabsd	%xmm11, %xmm11
	vpsubd	%xmm10, %xmm4, %xmm10
	vpsubd	%xmm1, %xmm4, %xmm1
	vpsubd	16(%rsp), %xmm4, %xmm4
	vpabsd	%xmm5, %xmm7
	vpabsd	%xmm1, %xmm1
	vmovdqa	%xmm7, 96(%rsp)
	vpminsd	%xmm7, %xmm3, %xmm7
	vpabsd	%xmm10, %xmm10
	vpabsd	%xmm4, %xmm5
	vpminsd	%xmm9, %xmm2, %xmm4
	vpcmpgtd	%xmm8, %xmm15, %xmm9
	vpcmpgtd	%xmm4, %xmm12, %xmm15
	vmovdqa	%xmm9, 16(%rsp)
	vpcmpgtd	%xmm7, %xmm11, %xmm9
	vmovdqa	%xmm5, 112(%rsp)
	vmovdqa	%xmm15, 32(%rsp)
	vpcmpeqd	%xmm8, %xmm0, %xmm15
	vpminsd	%xmm5, %xmm1, %xmm5
	vmovdqa	%xmm9, 48(%rsp)
	vpcmpgtd	%xmm6, %xmm0, %xmm0
	vpcmpgtd	%xmm5, %xmm10, %xmm9
	vpand	16(%rsp), %xmm15, %xmm15
	vmovdqa	64(%rsp), %xmm6
	vpand	16(%rsp), %xmm0, %xmm0
	vmovdqa	%xmm15, 128(%rsp)
	vpcmpeqd	%xmm4, %xmm2, %xmm15
	vpand	32(%rsp), %xmm15, %xmm15
	vpminsd	%xmm6, %xmm8, %xmm8
	vpcmpgtd	80(%rsp), %xmm2, %xmm2
	vpand	32(%rsp), %xmm2, %xmm2
	vpminsd	%xmm4, %xmm12, %xmm4
	vpand	%xmm0, %xmm13, %xmm0
	vpcmpeqd	%xmm6, %xmm8, %xmm8
	vmovdqa	240(%rsp), %xmm6
	vpcmpeqd	%xmm4, %xmm12, %xmm4
	vpand	%xmm8, %xmm13, %xmm8
	vpand	%xmm4, %xmm13, %xmm4
	vpackusdw	%xmm4, %xmm8, %xmm4
	vmovdqa	%xmm15, 144(%rsp)
	vpcmpeqd	%xmm7, %xmm3, %xmm15
	vpand	48(%rsp), %xmm15, %xmm15
	vpminsd	%xmm7, %xmm11, %xmm7
	vpcmpgtd	96(%rsp), %xmm3, %xmm3
	vpand	48(%rsp), %xmm3, %xmm3
	vpand	%xmm2, %xmm13, %xmm2
	vpcmpeqd	%xmm7, %xmm11, %xmm7
	vpackusdw	%xmm2, %xmm0, %xmm0
	vpand	%xmm6, %xmm4, %xmm4
	vpand	%xmm7, %xmm13, %xmm7
	vpand	%xmm6, %xmm0, %xmm0
	vmovdqa	%xmm15, 192(%rsp)
	vpcmpeqd	%xmm5, %xmm1, %xmm15
	vpminsd	%xmm5, %xmm10, %xmm5
	vpcmpeqd	%xmm5, %xmm10, %xmm5
	vpcmpgtd	112(%rsp), %xmm1, %xmm1
	vpand	%xmm3, %xmm13, %xmm3
	vpand	%xmm9, %xmm15, %xmm15
	vpand	%xmm5, %xmm13, %xmm5
	vpand	%xmm9, %xmm1, %xmm1
	vpand	%xmm15, %xmm13, %xmm15
	vpackusdw	%xmm5, %xmm7, %xmm5
	vmovdqu	0(%r13,%rcx), %xmm7
	vpand	%xmm1, %xmm13, %xmm1
	vpand	%xmm6, %xmm5, %xmm5
	vpackusdw	%xmm1, %xmm3, %xmm1
	vpand	%xmm6, %xmm1, %xmm1
	vpackuswb	%xmm5, %xmm4, %xmm4
	vpackuswb	%xmm1, %xmm0, %xmm0
	vpand	144(%rsp), %xmm13, %xmm1
	vpblendvb	%xmm4, (%r12,%rcx), %xmm7, %xmm4
	vpblendvb	%xmm0, %xmm7, %xmm4, %xmm2
	vpand	128(%rsp), %xmm13, %xmm0
	vpackusdw	%xmm1, %xmm0, %xmm0
	vpand	192(%rsp), %xmm13, %xmm1
	vpand	%xmm6, %xmm0, %xmm0
	vpackusdw	%xmm15, %xmm1, %xmm1
	vpand	%xmm6, %xmm1, %xmm1
	vpackuswb	%xmm1, %xmm0, %xmm0
	vpblendvb	%xmm0, (%rax,%rcx), %xmm2, %xmm0
	vpaddb	(%r14,%rcx), %xmm0, %xmm0
	vmovdqu	%xmm0, (%rdi,%rcx)
	addq	$16, %rcx
	cmpq	%rcx, %rsi
	jne	.L1734
	movl	%edx, %esi
	andl	$-16, %esi
	testb	$15, %dl
	je	.L1693
	movl	%r15d, 32(%rsp)
	movl	%edx, 16(%rsp)
	jmp	.L1738
	.p2align 4
	.p2align 3
.L1737:
	cmpl	%r8d, %r9d
	cmovle	%ebx, %ecx
	addl	%r15d, %ecx
	movb	%cl, (%rdi,%rsi)
	incq	%rsi
	cmpl	%esi, 16(%rsp)
	jle	.L2170
.L1738:
	movzbl	(%rax,%rsi), %r9d
	movzbl	(%r12,%rsi), %r11d
	movzbl	0(%r13,%rsi), %r8d
	movzbl	(%r14,%rsi), %r15d
	movl	%r9d, %ebx
	leal	(%r9,%r11), %edx
	movl	%r8d, %ecx
	subl	%r8d, %edx
	movl	%edx, %r10d
	subl	%r9d, %r10d
	movl	%r10d, %r9d
	negl	%r9d
	cmovs	%r10d, %r9d
	movl	%edx, %r10d
	subl	%r8d, %r10d
	movl	%r10d, %r8d
	negl	%r8d
	cmovs	%r10d, %r8d
	subl	%r11d, %edx
	movl	%edx, %r10d
	negl	%r10d
	cmovns	%r10d, %edx
	cmpl	%r8d, %r9d
	movl	%r8d, %r10d
	cmovle	%r9d, %r10d
	cmpl	%r10d, %edx
	jg	.L1737
	movl	%r11d, %ecx
	addl	%r15d, %ecx
	movb	%cl, (%rdi,%rsi)
	incq	%rsi
	cmpl	%esi, 16(%rsp)
	jg	.L1738
.L2170:
	movl	32(%rsp), %r15d
	jmp	.L1693
.L1698:
	testl	%edx, %edx
	jle	.L1693
	leaq	1(%r14), %r8
	movq	%rdi, %rsi
	movl	%r15d, %ecx
	leaq	1(%rax), %r9
	subq	%r8, %rsi
	negl	%ecx
	movq	%rdi, %r8
	cmpq	$14, %rsi
	movslq	%ecx, %rcx
	seta	%sil
	subq	%r9, %r8
	cmpq	$14, %r8
	seta	%r8b
	testb	%r8b, %sil
	je	.L1727
	movq	%rcx, %rsi
	notq	%rsi
	cmpq	$14, %rsi
	leal	-1(%rdx), %esi
	seta	%r8b
	cmpl	$14, %esi
	seta	%sil
	testb	%sil, %r8b
	je	.L1727
	vmovdqa	.LC11(%rip), %xmm2
	vmovdqa	.LC12(%rip), %xmm3
	movl	%edx, %r8d
	addq	%rdi, %rcx
	shrl	$4, %r8d
	xorl	%esi, %esi
	salq	$4, %r8
	.p2align 4
	.p2align 3
.L1728:
	vmovdqu	(%rax,%rsi), %xmm5
	vpsrlw	$1, %xmm5, %xmm0
	vmovdqu	(%rcx,%rsi), %xmm5
	vpand	%xmm0, %xmm2, %xmm0
	vpsrlw	$1, %xmm5, %xmm1
	vmovdqu	(%rax,%rsi), %xmm5
	vpand	%xmm1, %xmm2, %xmm1
	vpaddb	%xmm1, %xmm0, %xmm0
	vpand	(%rcx,%rsi), %xmm5, %xmm1
	vpaddb	(%r14,%rsi), %xmm0, %xmm0
	vpand	%xmm3, %xmm1, %xmm1
	vpaddb	%xmm1, %xmm0, %xmm0
	vmovdqu	%xmm0, (%rdi,%rsi)
	addq	$16, %rsi
	cmpq	%rsi, %r8
	jne	.L1728
	movl	%edx, %r9d
	andl	$-16, %r9d
	testb	$15, %dl
	je	.L1693
	movl	%r9d, %ecx
	movl	%r9d, %esi
	subl	%r15d, %ecx
	movzbl	(%rax,%rsi), %r8d
	movslq	%ecx, %rcx
	movzbl	(%rdi,%rcx), %ecx
	addl	%r8d, %ecx
	sarl	%ecx
	addb	(%r14,%rsi), %cl
	movb	%cl, (%rdi,%rsi)
	leal	1(%r9), %ecx
	cmpl	%ecx, %edx
	jle	.L1693
	movslq	%ecx, %rsi
	subl	%r15d, %ecx
	movslq	%ecx, %rcx
	movzbl	(%rax,%rsi), %r8d
	movzbl	(%rdi,%rcx), %ecx
	addl	%r8d, %ecx
	sarl	%ecx
	addb	(%r14,%rsi), %cl
	movb	%cl, (%rdi,%rsi)
	leal	2(%r9), %ecx
	cmpl	%ecx, %edx
	jle	.L1693
	movslq	%ecx, %rsi
	subl	%r15d, %ecx
	movslq	%ecx, %rcx
	movzbl	(%rax,%rsi), %r8d
	movzbl	(%rdi,%rcx), %ecx
	addl	%r8d, %ecx
	sarl	%ecx
	addb	(%r14,%rsi), %cl
	movb	%cl, (%rdi,%rsi)
	leal	3(%r9), %ecx
	cmpl	%ecx, %edx
	jle	.L1693
	movslq	%ecx, %rsi
	subl	%r15d, %ecx
	movslq	%ecx, %rcx
	movzbl	(%rax,%rsi), %r8d
	movzbl	(%rdi,%rcx), %ecx
	addl	%r8d, %ecx
	sarl	%ecx
	addb	(%r14,%rsi), %cl
	movb	%cl, (%rdi,%rsi)
	leal	4(%r9), %ecx
	cmpl	%ecx, %edx
	jle	.L1693
	movslq	%ecx, %rsi
	subl	%r15d, %ecx
	movslq	%ecx, %rcx
	movzbl	(%rax,%rsi), %r8d
	movzbl	(%rdi,%rcx), %ecx
	addl	%r8d, %ecx
	sarl	%ecx
	addb	(%r14,%rsi), %cl
	movb	%cl, (%rdi,%rsi)
	leal	5(%r9), %ecx
	cmpl	%ecx, %edx
	jle	.L1693
	movslq	%ecx, %rsi
	subl	%r15d, %ecx
	movslq	%ecx, %rcx
	movzbl	(%rax,%rsi), %r8d
	movzbl	(%rdi,%rcx), %ecx
	addl	%r8d, %ecx
	sarl	%ecx
	addb	(%r14,%rsi), %cl
	movb	%cl, (%rdi,%rsi)
	leal	6(%r9), %ecx
	cmpl	%ecx, %edx
	jle	.L1693
	movslq	%ecx, %rsi
	subl	%r15d, %ecx
	movslq	%ecx, %rcx
	movzbl	(%rax,%rsi), %r8d
	movzbl	(%rdi,%rcx), %ecx
	addl	%r8d, %ecx
	sarl	%ecx
	addb	(%r14,%rsi), %cl
	movb	%cl, (%rdi,%rsi)
	leal	7(%r9), %ecx
	cmpl	%ecx, %edx
	jle	.L1693
	movslq	%ecx, %rsi
	subl	%r15d, %ecx
	movslq	%ecx, %rcx
	movzbl	(%rax,%rsi), %r8d
	movzbl	(%rdi,%rcx), %ecx
	addl	%r8d, %ecx
	sarl	%ecx
	addb	(%r14,%rsi), %cl
	movb	%cl, (%rdi,%rsi)
	leal	8(%r9), %ecx
	cmpl	%ecx, %edx
	jle	.L1693
	movslq	%ecx, %rsi
	subl	%r15d, %ecx
	movslq	%ecx, %rcx
	movzbl	(%rax,%rsi), %r8d
	movzbl	(%rdi,%rcx), %ecx
	addl	%r8d, %ecx
	sarl	%ecx
	addb	(%r14,%rsi), %cl
	movb	%cl, (%rdi,%rsi)
	leal	9(%r9), %ecx
	cmpl	%ecx, %edx
	jle	.L1693
	movslq	%ecx, %rsi
	subl	%r15d, %ecx
	movslq	%ecx, %rcx
	movzbl	(%rax,%rsi), %r8d
	movzbl	(%rdi,%rcx), %ecx
	addl	%r8d, %ecx
	sarl	%ecx
	addb	(%r14,%rsi), %cl
	movb	%cl, (%rdi,%rsi)
	leal	10(%r9), %ecx
	cmpl	%ecx, %edx
	jle	.L1693
	movslq	%ecx, %rsi
	subl	%r15d, %ecx
	movslq	%ecx, %rcx
	movzbl	(%rax,%rsi), %r8d
	movzbl	(%rdi,%rcx), %ecx
	addl	%r8d, %ecx
	sarl	%ecx
	addb	(%r14,%rsi), %cl
	movb	%cl, (%rdi,%rsi)
	leal	11(%r9), %ecx
	cmpl	%ecx, %edx
	jle	.L1693
	movslq	%ecx, %rsi
	subl	%r15d, %ecx
	movslq	%ecx, %rcx
	movzbl	(%rax,%rsi), %r8d
	movzbl	(%rdi,%rcx), %ecx
	addl	%r8d, %ecx
	sarl	%ecx
	addb	(%r14,%rsi), %cl
	movb	%cl, (%rdi,%rsi)
	leal	12(%r9), %ecx
	cmpl	%ecx, %edx
	jle	.L1693
	movslq	%ecx, %rsi
	subl	%r15d, %ecx
	movslq	%ecx, %rcx
	movzbl	(%rax,%rsi), %r8d
	movzbl	(%rdi,%rcx), %ecx
	addl	%r8d, %ecx
	sarl	%ecx
	addb	(%r14,%rsi), %cl
	movb	%cl, (%rdi,%rsi)
	leal	13(%r9), %ecx
	cmpl	%ecx, %edx
	jle	.L1693
	movslq	%ecx, %rsi
	subl	%r15d, %ecx
	movslq	%ecx, %rcx
	movzbl	(%rax,%rsi), %r8d
	movzbl	(%rdi,%rcx), %ecx
	addl	%r8d, %ecx
	sarl	%ecx
	addb	(%r14,%rsi), %cl
	movb	%cl, (%rdi,%rsi)
	leal	14(%r9), %ecx
	cmpl	%ecx, %edx
	jle	.L1693
	movslq	%ecx, %rdx
	subl	%r15d, %ecx
	movslq	%ecx, %rcx
	movzbl	(%rax,%rdx), %eax
	movzbl	(%rdi,%rcx), %ecx
	addl	%ecx, %eax
	sarl	%eax
	addb	(%r14,%rdx), %al
	movb	%al, (%rdi,%rdx)
	jmp	.L1693
.L1699:
	testl	%edx, %edx
	jle	.L1693
	leaq	1(%r14), %r9
	movq	%rdi, %r8
	leaq	1(%rax), %r10
	movl	%edx, %ecx
	subq	%r9, %r8
	movq	%rdi, %r9
	leal	-1(%rdx), %esi
	cmpq	$14, %r8
	seta	%r8b
	subq	%r10, %r9
	cmpq	$14, %r9
	seta	%r9b
	testb	%r9b, %r8b
	je	.L1718
	cmpl	$6, %esi
	jbe	.L1718
	cmpl	$14, %esi
	jbe	.L1889
	movl	%edx, %esi
	xorl	%ecx, %ecx
	shrl	$4, %esi
	salq	$4, %rsi
	.p2align 4
	.p2align 3
.L1720:
	vmovdqu	(%r14,%rcx), %xmm3
	vpaddb	(%rax,%rcx), %xmm3, %xmm0
	vmovdqu	%xmm0, (%rdi,%rcx)
	addq	$16, %rcx
	cmpq	%rcx, %rsi
	jne	.L1720
	movl	%edx, %esi
	andl	$-16, %esi
	movl	%esi, %r8d
	cmpl	%esi, %edx
	je	.L1693
	movl	%edx, %ecx
	subl	%esi, %ecx
	leal	-1(%rcx), %r9d
	cmpl	$6, %r9d
	jbe	.L1723
.L1719:
	vmovq	(%r14,%rsi), %xmm0
	vmovq	(%rax,%rsi), %xmm1
	vpaddb	%xmm1, %xmm0, %xmm0
	vmovq	%xmm0, (%rdi,%rsi)
	movl	%ecx, %esi
	andl	$-8, %esi
	addl	%esi, %r8d
	cmpl	%ecx, %esi
	je	.L1693
.L1723:
	movslq	%r8d, %rcx
	movzbl	(%rax,%rcx), %esi
	addb	(%r14,%rcx), %sil
	movb	%sil, (%rdi,%rcx)
	leal	1(%r8), %ecx
	cmpl	%ecx, %edx
	jle	.L1693
	movslq	%ecx, %rcx
	movzbl	(%rax,%rcx), %esi
	addb	(%r14,%rcx), %sil
	movb	%sil, (%rdi,%rcx)
	leal	2(%r8), %ecx
	cmpl	%ecx, %edx
	jle	.L1693
	movslq	%ecx, %rcx
	movzbl	(%rax,%rcx), %esi
	addb	(%r14,%rcx), %sil
	movb	%sil, (%rdi,%rcx)
	leal	3(%r8), %ecx
	cmpl	%ecx, %edx
	jle	.L1693
	movslq	%ecx, %rcx
	movzbl	(%rax,%rcx), %esi
	addb	(%r14,%rcx), %sil
	movb	%sil, (%rdi,%rcx)
	leal	4(%r8), %ecx
	cmpl	%edx, %ecx
	jge	.L1693
	movslq	%ecx, %rcx
	movzbl	(%rax,%rcx), %esi
	addb	(%r14,%rcx), %sil
	movb	%sil, (%rdi,%rcx)
	leal	5(%r8), %ecx
	cmpl	%edx, %ecx
	jge	.L1693
	movslq	%ecx, %rcx
	addl	$6, %r8d
	movzbl	(%rax,%rcx), %esi
	addb	(%r14,%rcx), %sil
	movb	%sil, (%rdi,%rcx)
	cmpl	%edx, %r8d
	jge	.L1693
	movslq	%r8d, %r8
	movzbl	(%rax,%r8), %eax
	addb	(%r14,%r8), %al
	movb	%al, (%rdi,%r8)
	jmp	.L1693
.L1701:
	movq	(%rsp), %rdx
	movq	%r14, %rsi
	call	memcpy@PLT
	vmovdqa	.LC13(%rip), %xmm14
	.p2align 4
	.p2align 3
.L1693:
	addq	(%rsp), %r14
.L1757:
	movl	168(%rsp), %eax
	movl	176(%rsp), %edi
	addl	%edi, 208(%rsp)
	incl	%eax
	cmpl	%eax, 212(%rsp)
	je	.L1842
	movq	184(%rsp), %rbx
	movl	%eax, 168(%rsp)
	movq	24(%rbx), %rdi
	jmp	.L1843
.L1700:
	testl	%edx, %edx
	jle	.L1693
	movl	%r15d, %eax
	leal	-1(%rdx), %ecx
	movl	%edx, %r8d
	negl	%eax
	cltq
	movq	%rax, %rsi
	notq	%rsi
	cmpq	$14, %rsi
	seta	%r9b
	cmpl	$6, %ecx
	seta	%sil
	testb	%sil, %r9b
	je	.L1709
	leaq	1(%r14), %r9
	movq	%rdi, %rsi
	subq	%r9, %rsi
	cmpq	$14, %rsi
	jbe	.L1709
	cmpl	$14, %ecx
	jbe	.L1888
	movl	%edx, %esi
	addq	%rdi, %rax
	xorl	%ecx, %ecx
	shrl	$4, %esi
	salq	$4, %rsi
	.p2align 4
	.p2align 3
.L1711:
	vmovdqu	(%r14,%rcx), %xmm3
	vpaddb	(%rax,%rcx), %xmm3, %xmm0
	vmovdqu	%xmm0, (%rdi,%rcx)
	addq	$16, %rcx
	cmpq	%rcx, %rsi
	jne	.L1711
	movl	%edx, %esi
	andl	$-16, %esi
	movl	%esi, %ecx
	cmpl	%esi, %edx
	je	.L1693
	movl	%edx, %r8d
	subl	%esi, %r8d
	leal	-1(%r8), %r9d
	cmpl	$6, %r9d
	jbe	.L1714
.L1710:
	vmovq	(%rax,%rsi), %xmm0
	vmovq	(%r14,%rsi), %xmm1
	vpaddb	%xmm1, %xmm0, %xmm0
	movl	%r8d, %eax
	andl	$-8, %eax
	addl	%eax, %ecx
	vmovq	%xmm0, (%rdi,%rsi)
	cmpl	%r8d, %eax
	je	.L1693
.L1714:
	movl	%ecx, %eax
	movslq	%ecx, %rsi
	subl	%r15d, %eax
	movzbl	(%r14,%rsi), %r8d
	cltq
	addb	(%rdi,%rax), %r8b
	leal	1(%rcx), %eax
	movb	%r8b, (%rdi,%rsi)
	cmpl	%edx, %eax
	jge	.L1693
	movslq	%eax, %rsi
	subl	%r15d, %eax
	cltq
	movzbl	(%r14,%rsi), %r8d
	addb	(%rdi,%rax), %r8b
	leal	2(%rcx), %eax
	movb	%r8b, (%rdi,%rsi)
	cmpl	%edx, %eax
	jge	.L1693
	movslq	%eax, %rsi
	subl	%r15d, %eax
	cltq
	movzbl	(%r14,%rsi), %r8d
	addb	(%rdi,%rax), %r8b
	leal	3(%rcx), %eax
	movb	%r8b, (%rdi,%rsi)
	cmpl	%edx, %eax
	jge	.L1693
	movslq	%eax, %rsi
	subl	%r15d, %eax
	cltq
	movzbl	(%r14,%rsi), %r8d
	addb	(%rdi,%rax), %r8b
	leal	4(%rcx), %eax
	movb	%r8b, (%rdi,%rsi)
	cmpl	%edx, %eax
	jge	.L1693
	movslq	%eax, %rsi
	subl	%r15d, %eax
	cltq
	movzbl	(%r14,%rsi), %r8d
	addb	(%rdi,%rax), %r8b
	leal	5(%rcx), %eax
	movb	%r8b, (%rdi,%rsi)
	cmpl	%edx, %eax
	jl	.L2162
	jmp	.L1693
	.p2align 4
	.p2align 3
.L1694:
	testl	%edx, %edx
	jle	.L1693
	movl	%r15d, %eax
	leal	-1(%rdx), %ecx
	movl	%edx, %r8d
	negl	%eax
	cltq
	movq	%rax, %rsi
	notq	%rsi
	cmpq	$14, %rsi
	seta	%r9b
	cmpl	$6, %ecx
	seta	%sil
	testb	%sil, %r9b
	je	.L1748
	leaq	1(%r14), %r9
	movq	%rdi, %rsi
	subq	%r9, %rsi
	cmpq	$14, %rsi
	jbe	.L1748
	cmpl	$14, %ecx
	jbe	.L1891
	movl	%edx, %esi
	addq	%rdi, %rax
	xorl	%ecx, %ecx
	shrl	$4, %esi
	salq	$4, %rsi
	.p2align 4
	.p2align 3
.L1750:
	vmovdqu	(%r14,%rcx), %xmm3
	vpaddb	(%rax,%rcx), %xmm3, %xmm0
	vmovdqu	%xmm0, (%rdi,%rcx)
	addq	$16, %rcx
	cmpq	%rcx, %rsi
	jne	.L1750
	movl	%edx, %esi
	andl	$-16, %esi
	movl	%esi, %ecx
	cmpl	%esi, %edx
	je	.L1693
	movl	%edx, %r8d
	subl	%esi, %r8d
	leal	-1(%r8), %r9d
	cmpl	$6, %r9d
	jbe	.L1753
.L1749:
	vmovq	(%rax,%rsi), %xmm0
	vmovq	(%r14,%rsi), %xmm1
	vpaddb	%xmm1, %xmm0, %xmm0
	movl	%r8d, %eax
	andl	$-8, %eax
	addl	%eax, %ecx
	vmovq	%xmm0, (%rdi,%rsi)
	cmpl	%r8d, %eax
	je	.L1693
.L1753:
	movl	%ecx, %eax
	movslq	%ecx, %rsi
	subl	%r15d, %eax
	movzbl	(%r14,%rsi), %r8d
	cltq
	addb	(%rdi,%rax), %r8b
	leal	1(%rcx), %eax
	movb	%r8b, (%rdi,%rsi)
	cmpl	%eax, %edx
	jle	.L1693
	movslq	%eax, %rsi
	subl	%r15d, %eax
	cltq
	movzbl	(%r14,%rsi), %r8d
	addb	(%rdi,%rax), %r8b
	leal	2(%rcx), %eax
	movb	%r8b, (%rdi,%rsi)
	cmpl	%eax, %edx
	jle	.L1693
	movslq	%eax, %rsi
	subl	%r15d, %eax
	cltq
	movzbl	(%r14,%rsi), %r8d
	addb	(%rdi,%rax), %r8b
	leal	3(%rcx), %eax
	movb	%r8b, (%rdi,%rsi)
	cmpl	%eax, %edx
	jle	.L1693
	movslq	%eax, %rsi
	subl	%r15d, %eax
	cltq
	movzbl	(%r14,%rsi), %r8d
	addb	(%rdi,%rax), %r8b
	leal	4(%rcx), %eax
	movb	%r8b, (%rdi,%rsi)
	cmpl	%eax, %edx
	jle	.L1693
	movslq	%eax, %rsi
	subl	%r15d, %eax
	cltq
	movzbl	(%r14,%rsi), %r8d
	addb	(%rdi,%rax), %r8b
	leal	5(%rcx), %eax
	movb	%r8b, (%rdi,%rsi)
	cmpl	%eax, %edx
	jle	.L1693
.L2162:
	movslq	%eax, %rsi
	subl	%r15d, %eax
	addl	$6, %ecx
	cltq
	movzbl	(%r14,%rsi), %r8d
	addb	(%rdi,%rax), %r8b
	movb	%r8b, (%rdi,%rsi)
	cmpl	%ecx, %edx
	jle	.L1693
	movslq	%ecx, %rax
	subl	%r15d, %ecx
	movslq	%ecx, %rdx
	movzbl	(%r14,%rax), %ecx
	addb	(%rdi,%rdx), %cl
	movb	%cl, (%rdi,%rax)
	jmp	.L1693
	.p2align 4
	.p2align 3
.L1672:
	movl	176(%rsp), %edx
	movl	168(%rsp), %r10d
	movq	%rdi, %rax
	subq	%rdx, %rax
	testl	%r10d, %r10d
	jne	.L1675
	leaq	first_row_filter(%rip), %rdx
	movzbl	(%rdx,%rcx), %ecx
.L1675:
	testl	%r15d, %r15d
	jne	.L1674
	cmpl	$8, 624(%rsp)
	jne	.L1687
	.p2align 4
	.p2align 3
.L2168:
	movslq	220(%rsp), %rdx
	cmpl	%edx, 172(%rsp)
	je	.L1688
	movb	$-1, (%rdi,%rdx)
.L1688:
	leaq	(%rbx,%rdx), %r14
	movslq	172(%rsp), %rdx
	addq	%rdx, %rdi
	addq	%rdx, %rax
	cmpb	$0, 288(%rsp)
	jne	.L2171
.L1692:
	movl	172(%rsp), %esi
	cmpl	%esi, 376(%rsp)
	jne	.L2172
	cmpl	$6, %ecx
	ja	.L1759
	leaq	.L1761(%rip), %rsi
	movl	%ecx, %edx
	movslq	(%rsi,%rdx,4), %rdx
	addq	%rsi, %rdx
	notrack jmp	*%rdx
	.section	.rodata
	.align 4
	.align 4
.L1761:
	.long	.L1767-.L1761
	.long	.L1766-.L1761
	.long	.L1765-.L1761
	.long	.L1764-.L1761
	.long	.L1763-.L1761
	.long	.L1762-.L1761
	.long	.L1760-.L1761
	.text
.L1762:
	movl	260(%rsp), %r9d
	testl	%r9d, %r9d
	je	.L1768
	movslq	256(%rsp), %rax
	movl	%r15d, %r10d
	movslq	%r15d, %r11
	andl	$-16, %r10d
	leal	1(%r10), %r12d
	leal	2(%r10), %ecx
	movl	%r10d, %r13d
	movl	%r10d, %ebp
	movl	%ecx, 96(%rsp)
	movq	%rcx, 16(%rsp)
	movq	%rax, %rbx
	movq	%rax, (%rsp)
	negl	%eax
	movl	%r12d, 80(%rsp)
	movslq	%eax, %rdx
	movl	%r15d, %eax
	subl	%ebx, %r13d
	shrl	$4, %eax
	addq	%rdx, %rdi
	notq	%rdx
	movslq	%r13d, %r13
	leal	-1(%rax), %r8d
	movq	%r12, %rax
	subl	%ebx, %eax
	incq	%r8
	movslq	%eax, %rsi
	movq	%rcx, %rax
	leal	3(%r10), %ecx
	salq	$4, %r8
	subl	%ebx, %eax
	movl	%ecx, 112(%rsp)
	movq	%rcx, 240(%rsp)
	cltq
	movq	%rax, 128(%rsp)
	movq	%rcx, %rax
	leal	4(%r10), %ecx
	subl	%ebx, %eax
	movl	%ecx, 144(%rsp)
	movq	%rcx, 280(%rsp)
	cltq
	movq	%rax, 264(%rsp)
	movq	%rcx, %rax
	leal	5(%r10), %ecx
	subl	%ebx, %eax
	movl	%ecx, 272(%rsp)
	movq	%rcx, 312(%rsp)
	cltq
	movq	%rax, 296(%rsp)
	movq	%rcx, %rax
	leal	6(%r10), %ecx
	subl	%ebx, %eax
	movl	%ecx, 304(%rsp)
	movq	%rcx, 336(%rsp)
	cltq
	movq	%rax, 320(%rsp)
	movq	%rcx, %rax
	leal	7(%r10), %ecx
	subl	%ebx, %eax
	movl	%ecx, 328(%rsp)
	movq	%rcx, 360(%rsp)
	cltq
	movq	%rax, 344(%rsp)
	movq	%rcx, %rax
	leal	8(%r10), %ecx
	subl	%ebx, %eax
	movl	%ecx, 352(%rsp)
	movq	%rcx, 384(%rsp)
	cltq
	movq	%rax, 368(%rsp)
	movq	%rcx, %rax
	leal	9(%r10), %ecx
	subl	%ebx, %eax
	movl	%ecx, 380(%rsp)
	movq	%rcx, 408(%rsp)
	cltq
	movq	%rax, 392(%rsp)
	movq	%rcx, %rax
	leal	10(%r10), %ecx
	subl	%ebx, %eax
	movl	%ecx, 400(%rsp)
	movq	%rcx, 432(%rsp)
	cltq
	movq	%rax, 416(%rsp)
	movq	%rcx, %rax
	leal	11(%r10), %ecx
	subl	%ebx, %eax
	movl	%ecx, 424(%rsp)
	movq	%rcx, 456(%rsp)
	cltq
	movq	%rax, 440(%rsp)
	movq	%rcx, %rax
	leal	12(%r10), %ecx
	subl	%ebx, %eax
	cltq
	movq	%rax, 464(%rsp)
	movq	%rcx, %rax
	movl	%ecx, 448(%rsp)
	subl	%ebx, %eax
	movq	%rcx, 480(%rsp)
	leal	13(%r10), %ecx
	movl	%r10d, 64(%rsp)
	cltq
	movl	%ecx, 472(%rsp)
	movq	%rcx, 504(%rsp)
	movq	%rax, 488(%rsp)
	movq	%rcx, %rax
	leal	14(%r10), %ecx
	movq	%r14, 536(%rsp)
	subl	%ebx, %eax
	movl	%ecx, 496(%rsp)
	movq	%rcx, 520(%rsp)
	cltq
	movq	%rdx, 48(%rsp)
	movq	%rax, 512(%rsp)
	movq	16(%rsp), %r10
	movq	%rcx, %rax
	subl	%ebx, %eax
	leal	-1(%r15), %ebx
	cltq
	movl	%ebx, 32(%rsp)
	movq	%rax, 528(%rsp)
	movq	%r14, %rax
	movq	%rsi, %r14
	.p2align 4
	.p2align 3
.L1822:
	movq	%rdi, %rsi
	addq	(%rsp), %rdi
	testl	%r15d, %r15d
	je	.L1829
	cmpq	$14, 48(%rsp)
	seta	%cl
	cmpl	$14, 32(%rsp)
	seta	%dl
	testb	%dl, %cl
	je	.L1823
	leaq	1(%rax), %rcx
	movq	%rdi, %rdx
	subq	%rcx, %rdx
	cmpq	$14, %rdx
	jbe	.L1823
	addq	$0, %rsi
	xorl	%edx, %edx
	.p2align 4
	.p2align 3
.L1824:
	vmovdqu	(%rsi,%rdx), %xmm3
	vpsrlw	$1, %xmm3, %xmm0
	vpand	.LC11(%rip), %xmm0, %xmm0
	vpaddb	(%rax,%rdx), %xmm0, %xmm0
	vmovdqu	%xmm0, (%rdi,%rdx)
	addq	$16, %rdx
	cmpq	%rdx, %r8
	jne	.L1824
	cmpl	64(%rsp), %r15d
	je	.L1829
	movzbl	(%rdi,%r13), %edx
	shrb	%dl
	addb	(%rax,%rbp), %dl
	movb	%dl, (%rdi,%rbp)
	cmpl	80(%rsp), %r15d
	jle	.L1829
	movzbl	(%rdi,%r14), %edx
	shrb	%dl
	addb	(%rax,%r12), %dl
	movb	%dl, (%rdi,%r12)
	cmpl	96(%rsp), %r15d
	jle	.L1829
	movq	128(%rsp), %rsi
	movzbl	(%rdi,%rsi), %esi
	movl	%esi, %edx
	movb	%sil, 16(%rsp)
	shrb	%dl
	addb	(%rax,%r10), %dl
	movb	%dl, (%rdi,%r10)
	cmpl	112(%rsp), %r15d
	jle	.L1829
	movq	264(%rsp), %rsi
	movzbl	(%rdi,%rsi), %esi
	movl	%esi, %edx
	movb	%sil, 16(%rsp)
	movq	240(%rsp), %rsi
	shrb	%dl
	addb	(%rax,%rsi), %dl
	movb	%dl, (%rdi,%rsi)
	cmpl	144(%rsp), %r15d
	jle	.L1829
	movq	296(%rsp), %rsi
	movzbl	(%rdi,%rsi), %esi
	movl	%esi, %edx
	movb	%sil, 16(%rsp)
	movq	280(%rsp), %rsi
	shrb	%dl
	addb	(%rax,%rsi), %dl
	movb	%dl, (%rdi,%rsi)
	cmpl	272(%rsp), %r15d
	jle	.L1829
	movq	320(%rsp), %rsi
	movzbl	(%rdi,%rsi), %esi
	movl	%esi, %edx
	movb	%sil, 16(%rsp)
	movq	312(%rsp), %rsi
	shrb	%dl
	addb	(%rax,%rsi), %dl
	movb	%dl, (%rdi,%rsi)
	cmpl	304(%rsp), %r15d
	jle	.L1829
	movq	344(%rsp), %rsi
	movzbl	(%rdi,%rsi), %esi
	movl	%esi, %edx
	movb	%sil, 16(%rsp)
	movq	336(%rsp), %rsi
	shrb	%dl
	addb	(%rax,%rsi), %dl
	movb	%dl, (%rdi,%rsi)
	cmpl	328(%rsp), %r15d
	jle	.L1829
	movq	368(%rsp), %rsi
	movzbl	(%rdi,%rsi), %esi
	movl	%esi, %edx
	movb	%sil, 16(%rsp)
	movq	360(%rsp), %rsi
	shrb	%dl
	addb	(%rax,%rsi), %dl
	movb	%dl, (%rdi,%rsi)
	cmpl	352(%rsp), %r15d
	jle	.L1829
	movq	392(%rsp), %rsi
	movzbl	(%rdi,%rsi), %esi
	movl	%esi, %edx
	movb	%sil, 16(%rsp)
	movq	384(%rsp), %rsi
	shrb	%dl
	addb	(%rax,%rsi), %dl
	movb	%dl, (%rdi,%rsi)
	cmpl	380(%rsp), %r15d
	jle	.L1829
	movq	416(%rsp), %rsi
	movzbl	(%rdi,%rsi), %esi
	movl	%esi, %edx
	movb	%sil, 16(%rsp)
	movq	408(%rsp), %rsi
	shrb	%dl
	addb	(%rax,%rsi), %dl
	movb	%dl, (%rdi,%rsi)
	cmpl	400(%rsp), %r15d
	jle	.L1829
	movq	440(%rsp), %rsi
	movzbl	(%rdi,%rsi), %esi
	movl	%esi, %edx
	movb	%sil, 16(%rsp)
	movq	432(%rsp), %rsi
	shrb	%dl
	addb	(%rax,%rsi), %dl
	movb	%dl, (%rdi,%rsi)
	cmpl	424(%rsp), %r15d
	jle	.L1829
	movq	464(%rsp), %rsi
	movzbl	(%rdi,%rsi), %esi
	movl	%esi, %edx
	movb	%sil, 16(%rsp)
	movq	456(%rsp), %rsi
	shrb	%dl
	addb	(%rax,%rsi), %dl
	movb	%dl, (%rdi,%rsi)
	cmpl	448(%rsp), %r15d
	jle	.L1829
	movq	488(%rsp), %rsi
	movzbl	(%rdi,%rsi), %esi
	movl	%esi, %edx
	movb	%sil, 16(%rsp)
	movq	480(%rsp), %rsi
	shrb	%dl
	addb	(%rax,%rsi), %dl
	movb	%dl, (%rdi,%rsi)
	cmpl	472(%rsp), %r15d
	jle	.L1829
	movq	512(%rsp), %rsi
	movzbl	(%rdi,%rsi), %esi
	movl	%esi, %edx
	movb	%sil, 16(%rsp)
	movq	504(%rsp), %rsi
	shrb	%dl
	addb	(%rax,%rsi), %dl
	movb	%dl, (%rdi,%rsi)
	cmpl	496(%rsp), %r15d
	jle	.L1829
	movq	528(%rsp), %rsi
	movzbl	(%rdi,%rsi), %esi
	movl	%esi, %edx
	movb	%sil, 16(%rsp)
	movq	520(%rsp), %rsi
	shrb	%dl
	addb	(%rax,%rsi), %dl
	movb	%dl, (%rdi,%rsi)
	.p2align 4
	.p2align 3
.L1829:
	addq	%r11, %rax
	decl	%r9d
	movb	$-1, (%rdi,%r11)
	jne	.L1822
	movl	260(%rsp), %eax
	movq	536(%rsp), %r14
	imulq	%r11, %rax
	addq	%rax, %r14
	cmpl	$16, 624(%rsp)
	jne	.L1757
.L2174:
	movq	184(%rsp), %rbx
	movl	216(%rsp), %r8d
	movq	192(%rsp), %rax
	addq	24(%rbx), %rax
	testl	%r8d, %r8d
	je	.L1757
.L1884:
	movslq	256(%rsp), %rcx
	movl	216(%rsp), %esi
	movslq	%r15d, %rdx
	leaq	1(%rax,%rdx), %rdx
	xorl	%eax, %eax
	.p2align 4
	.p2align 3
.L1841:
	incl	%eax
	movb	$-1, (%rdx)
	addq	%rcx, %rdx
	cmpl	%eax, %esi
	ja	.L1841
	jmp	.L1757
.L1763:
	movl	260(%rsp), %ecx
	testl	%ecx, %ecx
	je	.L1768
	movslq	256(%rsp), %rsi
	movq	%rax, %rdx
	movslq	%r15d, %rbx
	movq	%rdi, %r9
	movq	%rbx, 280(%rsp)
	movl	%r15d, 144(%rsp)
	movq	%r14, 352(%rsp)
	movl	%ecx, 296(%rsp)
	subq	%rsi, %rdx
	movq	%rsi, %rbx
	subq	%rsi, %r9
	movq	%rsi, 304(%rsp)
	movq	%rdx, 240(%rsp)
	movl	%r15d, %edx
	movl	%r15d, %esi
	negl	%ebx
	shrl	$4, %edx
	movslq	%ebx, %rbx
	andl	$-16, %esi
	decl	%edx
	leaq	(%rax,%rbx), %r11
	movq	%rbx, 264(%rsp)
	movl	%esi, 312(%rsp)
	notq	%rbx
	incq	%rdx
	movq	%rsi, 344(%rsp)
	leal	-1(%r15), %esi
	salq	$4, %rdx
	movq	%rbx, 336(%rsp)
	movl	%esi, %ebx
	movl	%esi, 328(%rsp)
	movq	%rdx, 320(%rsp)
	movq	%rbx, 272(%rsp)
	movq	%r14, %rdx
	movq	%r9, %r15
	movq	%r11, %r14
	.p2align 4
	.p2align 3
.L1811:
	movl	144(%rsp), %r9d
	testl	%r9d, %r9d
	je	.L1820
	leaq	1(%rax), %rsi
	movq	%rdi, %rcx
	leaq	1(%rdx), %r8
	subq	%rsi, %rcx
	movq	%rdi, %rsi
	cmpq	$14, %rcx
	seta	%cl
	subq	%r8, %rsi
	cmpq	$14, %rsi
	seta	%sil
	andl	%ecx, %esi
	cmpq	$14, 336(%rsp)
	seta	%cl
	cmpl	$14, 328(%rsp)
	seta	%r8b
	andl	%r8d, %ecx
	testb	%cl, %sil
	je	.L1812
	leaq	1(%r14), %rsi
	movq	%rdi, %rcx
	subq	%rsi, %rcx
	cmpq	$14, %rcx
	jbe	.L1812
	movq	264(%rsp), %rbx
	movq	320(%rsp), %r8
	xorl	%ecx, %ecx
	leaq	(%rdi,%rbx), %rsi
	.p2align 4
	.p2align 3
.L1813:
	vmovdqu	(%rsi,%rcx), %xmm7
	vmovdqu	(%rax,%rcx), %xmm3
	vmovdqu	(%r14,%rcx), %xmm5
	vmovdqu	(%r14,%rcx), %xmm6
	vpmovzxbw	%xmm7, %xmm13
	vmovdqu	(%rsi,%rcx), %xmm7
	vpmovzxbw	%xmm3, %xmm2
	vmovdqu	(%rax,%rcx), %xmm3
	vpmovzxbw	%xmm5, %xmm9
	vpmovzxwd	%xmm2, %xmm1
	vpsrldq	$8, %xmm2, %xmm2
	vpsrldq	$8, %xmm6, %xmm0
	vpmovzxwd	%xmm13, %xmm15
	vpmovzxwd	%xmm9, %xmm11
	vpmovzxwd	%xmm2, %xmm2
	vpsrldq	$8, %xmm13, %xmm13
	vpaddd	%xmm15, %xmm1, %xmm8
	vpmovzxwd	%xmm13, %xmm13
	vpmovzxbw	%xmm0, %xmm0
	vpsrldq	$8, %xmm9, %xmm9
	vpsubd	%xmm11, %xmm8, %xmm8
	vpmovzxwd	%xmm9, %xmm9
	vpmovzxwd	%xmm0, %xmm10
	vpsrldq	$8, %xmm0, %xmm0
	vpsubd	%xmm15, %xmm8, %xmm15
	vpsubd	%xmm1, %xmm8, %xmm1
	vpsubd	%xmm11, %xmm8, %xmm8
	vpmovzxwd	%xmm0, %xmm5
	vpabsd	%xmm1, %xmm1
	vpabsd	%xmm8, %xmm8
	vmovdqa	%xmm5, (%rsp)
	vpabsd	%xmm15, %xmm15
	vpsrldq	$8, %xmm7, %xmm4
	vpaddd	%xmm13, %xmm2, %xmm7
	vpmovzxbw	%xmm4, %xmm4
	vpsrldq	$8, %xmm3, %xmm0
	vpsubd	%xmm9, %xmm7, %xmm7
	vpmovzxbw	%xmm0, %xmm0
	vpmovzxwd	%xmm4, %xmm12
	vpsrldq	$8, %xmm4, %xmm4
	vpmovzxwd	%xmm0, %xmm3
	vpmovzxwd	%xmm4, %xmm4
	vpsubd	%xmm13, %xmm7, %xmm13
	vpsrldq	$8, %xmm0, %xmm0
	vpsubd	%xmm2, %xmm7, %xmm2
	vpmovzxwd	%xmm0, %xmm0
	vpsubd	%xmm9, %xmm7, %xmm7
	vmovdqa	%xmm15, 64(%rsp)
	vpminsd	%xmm8, %xmm1, %xmm9
	vpaddd	%xmm4, %xmm0, %xmm5
	vpsubd	(%rsp), %xmm5, %xmm5
	vpaddd	%xmm12, %xmm3, %xmm6
	vpcmpgtd	%xmm9, %xmm15, %xmm11
	vpsubd	%xmm10, %xmm6, %xmm6
	vpabsd	%xmm2, %xmm2
	vmovdqa	%xmm11, 32(%rsp)
	vpcmpeqd	%xmm9, %xmm1, %xmm15
	vpand	32(%rsp), %xmm15, %xmm15
	vpabsd	%xmm7, %xmm7
	vpsubd	%xmm12, %xmm6, %xmm12
	vpabsd	%xmm13, %xmm13
	vpsubd	%xmm3, %xmm6, %xmm3
	vpsubd	%xmm10, %xmm6, %xmm6
	vpminsd	%xmm7, %xmm2, %xmm10
	vpabsd	%xmm12, %xmm12
	vpcmpgtd	%xmm8, %xmm1, %xmm1
	vpcmpgtd	%xmm10, %xmm13, %xmm11
	vmovdqa	%xmm12, 16(%rsp)
	vpabsd	%xmm3, %xmm3
	vpand	32(%rsp), %xmm1, %xmm1
	vmovdqa	%xmm11, 48(%rsp)
	vmovdqa	16(%rsp), %xmm11
	vpsubd	%xmm4, %xmm5, %xmm4
	vpsubd	%xmm0, %xmm5, %xmm0
	vpsubd	(%rsp), %xmm5, %xmm5
	vmovdqa	%xmm10, (%rsp)
	vpabsd	%xmm4, %xmm12
	vpabsd	%xmm6, %xmm4
	vmovdqa	%xmm15, 96(%rsp)
	vpcmpeqd	(%rsp), %xmm2, %xmm15
	vpand	48(%rsp), %xmm15, %xmm15
	vmovdqa	%xmm4, 80(%rsp)
	vpcmpgtd	%xmm7, %xmm2, %xmm2
	vpminsd	%xmm4, %xmm3, %xmm4
	vpabsd	%xmm0, %xmm0
	vmovdqa	64(%rsp), %xmm7
	vpand	48(%rsp), %xmm2, %xmm2
	vpand	%xmm1, %xmm14, %xmm1
	vpcmpgtd	%xmm4, %xmm11, %xmm11
	vpabsd	%xmm5, %xmm5
	vpminsd	%xmm5, %xmm0, %xmm6
	vpcmpgtd	%xmm5, %xmm0, %xmm5
	vmovdqa	%xmm15, 112(%rsp)
	vpcmpeqd	%xmm4, %xmm3, %xmm15
	vpcmpgtd	%xmm6, %xmm12, %xmm10
	vpand	%xmm11, %xmm15, %xmm15
	vpcmpgtd	80(%rsp), %xmm3, %xmm3
	vpminsd	%xmm7, %xmm9, %xmm9
	vmovdqa	%xmm15, 128(%rsp)
	vpcmpeqd	%xmm6, %xmm0, %xmm15
	vpminsd	(%rsp), %xmm13, %xmm0
	vpcmpeqd	%xmm7, %xmm9, %xmm9
	vmovdqa	16(%rsp), %xmm7
	vpminsd	%xmm6, %xmm12, %xmm6
	vpand	%xmm11, %xmm3, %xmm3
	vpcmpeqd	%xmm6, %xmm12, %xmm6
	vpand	%xmm9, %xmm14, %xmm9
	vpand	%xmm10, %xmm5, %xmm5
	vpand	%xmm6, %xmm14, %xmm6
	vpand	%xmm2, %xmm14, %xmm2
	vpand	%xmm3, %xmm14, %xmm3
	vpand	%xmm5, %xmm14, %xmm5
	vpackusdw	%xmm2, %xmm1, %xmm1
	vpackusdw	%xmm5, %xmm3, %xmm3
	vpand	%xmm10, %xmm15, %xmm15
	vpand	%xmm15, %xmm14, %xmm15
	vpcmpeqd	%xmm0, %xmm13, %xmm0
	vpminsd	%xmm7, %xmm4, %xmm4
	vpand	%xmm0, %xmm14, %xmm0
	vpcmpeqd	%xmm7, %xmm4, %xmm4
	vpackusdw	%xmm0, %xmm9, %xmm0
	vpand	.LC2(%rip), %xmm0, %xmm0
	vmovdqu	(%r14,%rcx), %xmm7
	vpand	%xmm4, %xmm14, %xmm4
	vpackusdw	%xmm6, %xmm4, %xmm4
	vpand	.LC2(%rip), %xmm4, %xmm4
	vpackuswb	%xmm4, %xmm0, %xmm0
	vpblendvb	%xmm0, (%rsi,%rcx), %xmm7, %xmm0
	vpand	.LC2(%rip), %xmm1, %xmm1
	vpand	.LC2(%rip), %xmm3, %xmm3
	vpand	112(%rsp), %xmm14, %xmm2
	vpackuswb	%xmm3, %xmm1, %xmm1
	vpblendvb	%xmm1, %xmm7, %xmm0, %xmm0
	vpand	96(%rsp), %xmm14, %xmm1
	vpackusdw	%xmm2, %xmm1, %xmm1
	vpand	128(%rsp), %xmm14, %xmm2
	vpand	.LC2(%rip), %xmm1, %xmm1
	vpackusdw	%xmm15, %xmm2, %xmm2
	vpand	.LC2(%rip), %xmm2, %xmm2
	vpackuswb	%xmm2, %xmm1, %xmm1
	vpblendvb	%xmm1, (%rax,%rcx), %xmm0, %xmm0
	vpaddb	(%rdx,%rcx), %xmm0, %xmm0
	vmovdqu	%xmm0, (%rdi,%rcx)
	addq	$16, %rcx
	cmpq	%rcx, %r8
	jne	.L1813
	movl	312(%rsp), %esi
	cmpl	%esi, 144(%rsp)
	je	.L1820
	movq	%r14, (%rsp)
	movq	344(%rsp), %rsi
	movq	240(%rsp), %r14
	jmp	.L1816
	.p2align 4
	.p2align 3
.L1815:
	cmpl	%r9d, %r10d
	cmovle	%ebp, %r8d
.L1817:
	addl	%r13d, %r8d
	movb	%r8b, (%rdi,%rsi)
	incq	%rsi
	cmpl	%esi, 144(%rsp)
	jle	.L2173
.L1816:
	movzbl	(%rax,%rsi), %r10d
	movzbl	(%r15,%rsi), %ebx
	movzbl	(%r14,%rsi), %r9d
	movzbl	(%rdx,%rsi), %r13d
	movl	%r10d, %ebp
	leal	(%r10,%rbx), %ecx
	movl	%r9d, %r8d
	subl	%r9d, %ecx
	movl	%ecx, %r11d
	subl	%r10d, %r11d
	movl	%r11d, %r10d
	negl	%r10d
	cmovs	%r11d, %r10d
	movl	%ecx, %r11d
	subl	%r9d, %r11d
	movl	%r11d, %r9d
	negl	%r9d
	cmovs	%r11d, %r9d
	subl	%ebx, %ecx
	movl	%ecx, %r11d
	negl	%r11d
	cmovns	%r11d, %ecx
	cmpl	%r9d, %r10d
	movl	%r9d, %r11d
	cmovle	%r10d, %r11d
	cmpl	%r11d, %ecx
	jg	.L1815
	movl	%ebx, %r8d
	jmp	.L1817
.L1764:
	movl	260(%rsp), %r11d
	testl	%r11d, %r11d
	je	.L1768
	movslq	256(%rsp), %r12
	movslq	%r15d, %rbp
	movl	%r12d, %edx
	negl	%edx
	movslq	%edx, %rcx
	movl	%r15d, %edx
	leaq	(%rdi,%rcx), %rbx
	shrl	$4, %edx
	notq	%rcx
	movq	%rbx, 424(%rsp)
	movl	%r15d, %ebx
	leal	-1(%rdx), %r9d
	andl	$-16, %ebx
	incq	%r9
	movl	%ebx, %edx
	leal	1(%rbx), %r10d
	leal	2(%rbx), %r8d
	leal	3(%rbx), %edi
	subl	%r12d, %edx
	movl	%edi, 112(%rsp)
	movq	%rdi, 240(%rsp)
	movl	%ebx, %r13d
	movslq	%edx, %rdx
	movl	%r10d, 48(%rsp)
	movl	%r8d, 80(%rsp)
	salq	$4, %r9
	movq	%rdx, 64(%rsp)
	movq	%r10, %rdx
	subl	%r12d, %edx
	movslq	%edx, %rdx
	movq	%rdx, 96(%rsp)
	movq	%r8, %rdx
	subl	%r12d, %edx
	movslq	%edx, %rdx
	movq	%rdx, 128(%rsp)
	movq	%rdi, %rdx
	subl	%r12d, %edx
	movslq	%edx, %rdi
	movq	%rdi, 264(%rsp)
	leal	4(%rbx), %edi
	movq	%rdi, %rdx
	movl	%edi, 144(%rsp)
	movq	%rdi, 280(%rsp)
	subl	%r12d, %edx
	movslq	%edx, %rdi
	movq	%rdi, 296(%rsp)
	leal	5(%rbx), %edi
	movq	%rdi, %rdx
	movl	%edi, 272(%rsp)
	movq	%rdi, 312(%rsp)
	subl	%r12d, %edx
	movslq	%edx, %rdi
	movq	%rdi, 320(%rsp)
	leal	6(%rbx), %edi
	movq	%rdi, %rdx
	movl	%edi, 304(%rsp)
	movq	%rdi, 336(%rsp)
	subl	%r12d, %edx
	movslq	%edx, %rdi
	movq	%rdi, 344(%rsp)
	leal	7(%rbx), %edi
	movq	%rdi, %rdx
	movl	%edi, 328(%rsp)
	movq	%rdi, 360(%rsp)
	subl	%r12d, %edx
	movslq	%edx, %rdi
	movq	%rdi, 368(%rsp)
	leal	8(%rbx), %edi
	movq	%rdi, %rdx
	movl	%edi, 352(%rsp)
	movq	%rdi, 384(%rsp)
	subl	%r12d, %edx
	movslq	%edx, %rdi
	movq	%rdi, 392(%rsp)
	leal	9(%rbx), %edi
	movq	%rdi, %rdx
	movl	%edi, 380(%rsp)
	movq	%rdi, 408(%rsp)
	subl	%r12d, %edx
	movslq	%edx, %rdi
	movq	%rdi, 416(%rsp)
	leal	10(%rbx), %edi
	movq	%rdi, %rdx
	movl	%edi, 400(%rsp)
	movq	%rdi, 440(%rsp)
	subl	%r12d, %edx
	movslq	%edx, %rdi
	movq	%rdi, 448(%rsp)
	leal	11(%rbx), %edi
	movq	%rdi, %rdx
	movl	%edi, 432(%rsp)
	movq	%rdi, 464(%rsp)
	vmovdqa	.LC11(%rip), %xmm2
	subl	%r12d, %edx
	movl	%ebx, 32(%rsp)
	movq	%r14, 552(%rsp)
	movslq	%edx, %rdi
	movq	%rcx, 16(%rsp)
	movq	%rdi, 472(%rsp)
	leal	12(%rbx), %edi
	vmovdqa	.LC12(%rip), %xmm3
	movq	%rdi, %rdx
	movl	%edi, 456(%rsp)
	movq	%rdi, 488(%rsp)
	subl	%r12d, %edx
	movslq	%edx, %rdi
	movq	%rdi, 496(%rsp)
	leal	13(%rbx), %edi
	movq	%rdi, %rdx
	movl	%edi, 480(%rsp)
	movq	%rdi, 520(%rsp)
	subl	%r12d, %edx
	movslq	%edx, %rdi
	movq	%rdi, 528(%rsp)
	leal	14(%rbx), %edi
	movq	%r10, %rbx
	movq	%rdi, %rdx
	movl	%edi, 512(%rsp)
	movq	%rdi, 536(%rsp)
	subl	%r12d, %edx
	movslq	%edx, %rdi
	movq	%r14, %rdx
	movq	%r8, %r14
	movq	%rdi, 544(%rsp)
	leal	-1(%r15), %edi
	movl	%edi, (%rsp)
	movq	%rdi, 504(%rsp)
	movq	424(%rsp), %rdi
	.p2align 4
	.p2align 3
.L1803:
	movq	%rdi, %r8
	addq	%r12, %rdi
	testl	%r15d, %r15d
	je	.L1810
	leaq	1(%rax), %rsi
	movq	%rdi, %rcx
	leaq	1(%rdx), %r10
	subq	%rsi, %rcx
	movq	%rdi, %rsi
	cmpq	$14, %rcx
	seta	%cl
	subq	%r10, %rsi
	cmpq	$14, %rsi
	seta	%sil
	testb	%sil, %cl
	je	.L1804
	cmpq	$14, 16(%rsp)
	seta	%sil
	cmpl	$14, (%rsp)
	seta	%cl
	testb	%cl, %sil
	je	.L1804
	addq	$0, %r8
	xorl	%ecx, %ecx
	.p2align 4
	.p2align 3
.L1805:
	vmovdqu	(%rax,%rcx), %xmm6
	vmovdqu	(%rax,%rcx), %xmm5
	vpsrlw	$1, %xmm6, %xmm0
	vmovdqu	(%r8,%rcx), %xmm6
	vpand	%xmm0, %xmm2, %xmm0
	vpsrlw	$1, %xmm6, %xmm1
	vpand	%xmm1, %xmm2, %xmm1
	vpaddb	%xmm1, %xmm0, %xmm0
	vpand	(%r8,%rcx), %xmm5, %xmm1
	vpaddb	(%rdx,%rcx), %xmm0, %xmm0
	vpand	%xmm3, %xmm1, %xmm1
	vpaddb	%xmm1, %xmm0, %xmm0
	vmovdqu	%xmm0, (%rdi,%rcx)
	addq	$16, %rcx
	cmpq	%rcx, %r9
	jne	.L1805
	cmpl	32(%rsp), %r15d
	je	.L1810
	movq	64(%rsp), %rsi
	movzbl	(%rax,%r13), %ecx
	movzbl	(%rdi,%rsi), %esi
	addl	%esi, %ecx
	sarl	%ecx
	addb	(%rdx,%r13), %cl
	movb	%cl, (%rdi,%r13)
	cmpl	48(%rsp), %r15d
	jle	.L1810
	movq	96(%rsp), %rsi
	movzbl	(%rax,%rbx), %ecx
	movzbl	(%rdi,%rsi), %esi
	addl	%esi, %ecx
	sarl	%ecx
	addb	(%rdx,%rbx), %cl
	movb	%cl, (%rdi,%rbx)
	cmpl	80(%rsp), %r15d
	jle	.L1810
	movq	128(%rsp), %rsi
	movzbl	(%rax,%r14), %ecx
	movzbl	(%rdi,%rsi), %esi
	addl	%esi, %ecx
	sarl	%ecx
	addb	(%rdx,%r14), %cl
	movb	%cl, (%rdi,%r14)
	cmpl	112(%rsp), %r15d
	jle	.L1810
	movq	240(%rsp), %r10
	movq	264(%rsp), %rsi
	movzbl	(%rax,%r10), %ecx
	movzbl	(%rdi,%rsi), %esi
	addl	%esi, %ecx
	sarl	%ecx
	addb	(%rdx,%r10), %cl
	movb	%cl, (%rdi,%r10)
	cmpl	144(%rsp), %r15d
	jle	.L1810
	movq	280(%rsp), %r10
	movq	296(%rsp), %rsi
	movzbl	(%rax,%r10), %ecx
	movzbl	(%rdi,%rsi), %esi
	addl	%esi, %ecx
	sarl	%ecx
	addb	(%rdx,%r10), %cl
	movb	%cl, (%rdi,%r10)
	cmpl	272(%rsp), %r15d
	jle	.L1810
	movq	312(%rsp), %r10
	movq	320(%rsp), %rsi
	movzbl	(%rax,%r10), %ecx
	movzbl	(%rdi,%rsi), %esi
	addl	%esi, %ecx
	sarl	%ecx
	addb	(%rdx,%r10), %cl
	movb	%cl, (%rdi,%r10)
	cmpl	304(%rsp), %r15d
	jle	.L1810
	movq	336(%rsp), %r10
	movq	344(%rsp), %rsi
	movzbl	(%rax,%r10), %ecx
	movzbl	(%rdi,%rsi), %esi
	addl	%esi, %ecx
	sarl	%ecx
	addb	(%rdx,%r10), %cl
	movb	%cl, (%rdi,%r10)
	cmpl	328(%rsp), %r15d
	jle	.L1810
	movq	360(%rsp), %r10
	movq	368(%rsp), %rsi
	movzbl	(%rax,%r10), %ecx
	movzbl	(%rdi,%rsi), %esi
	addl	%esi, %ecx
	sarl	%ecx
	addb	(%rdx,%r10), %cl
	movb	%cl, (%rdi,%r10)
	cmpl	352(%rsp), %r15d
	jle	.L1810
	movq	384(%rsp), %r10
	movq	392(%rsp), %rsi
	movzbl	(%rax,%r10), %ecx
	movzbl	(%rdi,%rsi), %esi
	addl	%esi, %ecx
	sarl	%ecx
	addb	(%rdx,%r10), %cl
	movb	%cl, (%rdi,%r10)
	cmpl	380(%rsp), %r15d
	jle	.L1810
	movq	408(%rsp), %r10
	movq	416(%rsp), %rsi
	movzbl	(%rax,%r10), %ecx
	movzbl	(%rdi,%rsi), %esi
	addl	%esi, %ecx
	sarl	%ecx
	addb	(%rdx,%r10), %cl
	movb	%cl, (%rdi,%r10)
	cmpl	400(%rsp), %r15d
	jle	.L1810
	movq	440(%rsp), %r10
	movq	448(%rsp), %rsi
	movzbl	(%rax,%r10), %ecx
	movzbl	(%rdi,%rsi), %esi
	addl	%esi, %ecx
	sarl	%ecx
	addb	(%rdx,%r10), %cl
	movb	%cl, (%rdi,%r10)
	cmpl	432(%rsp), %r15d
	jle	.L1810
	movq	464(%rsp), %r10
	movq	472(%rsp), %rsi
	movzbl	(%rax,%r10), %ecx
	movzbl	(%rdi,%rsi), %esi
	addl	%esi, %ecx
	sarl	%ecx
	addb	(%rdx,%r10), %cl
	movb	%cl, (%rdi,%r10)
	cmpl	456(%rsp), %r15d
	jle	.L1810
	movq	488(%rsp), %r10
	movq	496(%rsp), %rsi
	movzbl	(%rax,%r10), %ecx
	movzbl	(%rdi,%rsi), %esi
	addl	%esi, %ecx
	sarl	%ecx
	addb	(%rdx,%r10), %cl
	movb	%cl, (%rdi,%r10)
	cmpl	480(%rsp), %r15d
	jle	.L1810
	movq	520(%rsp), %r10
	movq	528(%rsp), %rsi
	movzbl	(%rax,%r10), %ecx
	movzbl	(%rdi,%rsi), %esi
	addl	%esi, %ecx
	sarl	%ecx
	addb	(%rdx,%r10), %cl
	movb	%cl, (%rdi,%r10)
	cmpl	512(%rsp), %r15d
	jle	.L1810
	movq	536(%rsp), %r8
	movq	544(%rsp), %rsi
	movzbl	(%rax,%r8), %ecx
	movzbl	(%rdi,%rsi), %esi
	addl	%esi, %ecx
	sarl	%ecx
	addb	(%rdx,%r8), %cl
	movb	%cl, (%rdi,%r8)
	.p2align 4
	.p2align 3
.L1810:
	addq	%rbp, %rdx
	addq	%r12, %rax
	decl	%r11d
	movb	$-1, (%rdi,%rbp)
	jne	.L1803
	movl	260(%rsp), %eax
	movq	552(%rsp), %r14
	imulq	%rbp, %rax
	addq	%rax, %r14
	jmp	.L1759
.L1765:
	movl	260(%rsp), %r9d
	testl	%r9d, %r9d
	je	.L1768
	movl	%r15d, %edx
	movl	%r15d, %ecx
	movslq	256(%rsp), %rbx
	leal	-1(%r15), %r12d
	shrl	$4, %edx
	andl	$15, %ecx
	movl	%r15d, %ebp
	movq	%r14, 16(%rsp)
	leal	-1(%rdx), %esi
	leal	-1(%rcx), %r10d
	movq	%r14, %rdx
	movslq	%r15d, %r11
	incq	%rsi
	movq	%r12, %r13
	andl	$-16, %ebp
	movl	%r10d, (%rsp)
	salq	$4, %rsi
	movl	%ecx, %r14d
	.p2align 4
	.p2align 3
.L1792:
	testl	%r15d, %r15d
	je	.L1802
	leaq	1(%rax), %r8
	movq	%rdi, %rcx
	leaq	1(%rdx), %r10
	subq	%r8, %rcx
	movq	%rdi, %r8
	cmpq	$14, %rcx
	seta	%cl
	subq	%r10, %r8
	cmpq	$14, %r8
	seta	%r8b
	testb	%r8b, %cl
	je	.L1793
	cmpl	$6, %r13d
	jbe	.L1793
	cmpl	$14, %r13d
	jbe	.L1896
	xorl	%ecx, %ecx
	.p2align 4
	.p2align 3
.L1795:
	vmovdqu	(%rdx,%rcx), %xmm5
	vpaddb	(%rax,%rcx), %xmm5, %xmm0
	vmovdqu	%xmm0, (%rdi,%rcx)
	addq	$16, %rcx
	cmpq	%rcx, %rsi
	jne	.L1795
	cmpl	%ebp, %r15d
	je	.L1802
	cmpl	$6, (%rsp)
	movl	%r14d, %r10d
	jbe	.L1897
	movl	%ebp, %r8d
	movl	%ebp, %ecx
.L1794:
	vmovq	(%rdx,%r8), %xmm0
	vmovq	(%rax,%r8), %xmm1
	vpaddb	%xmm1, %xmm0, %xmm0
	vmovq	%xmm0, (%rdi,%r8)
	movl	%r10d, %r8d
	andl	$-8, %r8d
	addl	%r8d, %ecx
	cmpl	%r10d, %r8d
	je	.L1802
.L1797:
	movslq	%ecx, %r8
	movzbl	(%rax,%r8), %r10d
	addb	(%rdx,%r8), %r10b
	movb	%r10b, (%rdi,%r8)
	leal	1(%rcx), %r8d
	cmpl	%r8d, %r15d
	jle	.L1802
	movslq	%r8d, %r8
	movzbl	(%rax,%r8), %r10d
	addb	(%rdx,%r8), %r10b
	movb	%r10b, (%rdi,%r8)
	leal	2(%rcx), %r8d
	cmpl	%r8d, %r15d
	jle	.L1802
	movslq	%r8d, %r8
	movzbl	(%rax,%r8), %r10d
	addb	(%rdx,%r8), %r10b
	movb	%r10b, (%rdi,%r8)
	leal	3(%rcx), %r8d
	cmpl	%r8d, %r15d
	jle	.L1802
	movslq	%r8d, %r8
	movzbl	(%rax,%r8), %r10d
	addb	(%rdx,%r8), %r10b
	movb	%r10b, (%rdi,%r8)
	leal	4(%rcx), %r8d
	cmpl	%r8d, %r15d
	jle	.L1802
	movslq	%r8d, %r8
	movzbl	(%rax,%r8), %r10d
	addb	(%rdx,%r8), %r10b
	movb	%r10b, (%rdi,%r8)
	leal	5(%rcx), %r8d
	cmpl	%r8d, %r15d
	jle	.L1802
	movslq	%r8d, %r8
	addl	$6, %ecx
	movzbl	(%rax,%r8), %r10d
	addb	(%rdx,%r8), %r10b
	movb	%r10b, (%rdi,%r8)
	cmpl	%ecx, %r15d
	jle	.L1802
	movslq	%ecx, %rcx
	movzbl	(%rax,%rcx), %r8d
	addb	(%rdx,%rcx), %r8b
	movb	%r8b, (%rdi,%rcx)
.L1802:
	movb	$-1, (%rdi,%r11)
	addq	%r11, %rdx
	addq	%rbx, %rdi
	addq	%rbx, %rax
	decl	%r9d
	jne	.L1792
	movl	260(%rsp), %eax
	movq	16(%rsp), %r14
	imulq	%r11, %rax
	addq	%rax, %r14
	jmp	.L1759
.L1767:
	movl	260(%rsp), %r9d
	testl	%r9d, %r9d
	je	.L1768
	movl	%r15d, %eax
	movl	%r15d, %edx
	movslq	256(%rsp), %r13
	leal	-1(%r15), %ebp
	shrl	$4, %eax
	andl	$15, %edx
	movl	%r15d, %ebx
	movl	%ecx, 16(%rsp)
	leal	-1(%rax), %esi
	leal	-1(%rdx), %r10d
	movq	%r14, %rax
	movq	%r14, (%rsp)
	incq	%rsi
	movslq	%r15d, %r11
	movq	%rbp, %r12
	andl	$-16, %ebx
	salq	$4, %rsi
	movl	%edx, %ecx
	movl	%r10d, %r14d
	.p2align 4
	.p2align 3
.L1769:
	testl	%r15d, %r15d
	je	.L1780
	leaq	1(%rax), %r8
	movq	%rdi, %rdx
	subq	%r8, %rdx
	cmpq	$14, %rdx
	jbe	.L1770
	cmpl	$6, %r12d
	jbe	.L1770
	cmpl	$14, %r12d
	jbe	.L1892
	xorl	%edx, %edx
	.p2align 4
	.p2align 3
.L1772:
	vmovdqu	(%rax,%rdx), %xmm3
	vmovdqu	%xmm3, (%rdi,%rdx)
	addq	$16, %rdx
	cmpq	%rdx, %rsi
	jne	.L1772
	cmpl	%ebx, %r15d
	je	.L1780
	movl	%ecx, %r10d
	cmpl	$6, %r14d
	jbe	.L1893
	movl	%ebx, %r8d
	movl	%ebx, %edx
.L1771:
	vmovq	(%rax,%r8), %xmm0
	vmovq	%xmm0, (%rdi,%r8)
	movl	%r10d, %r8d
	andl	$-8, %r8d
	addl	%r8d, %edx
	cmpl	%r10d, %r8d
	je	.L1780
.L1774:
	movslq	%edx, %r8
	movzbl	(%rax,%r8), %r10d
	movb	%r10b, (%rdi,%r8)
	leal	1(%rdx), %r8d
	cmpl	%r8d, %r15d
	jle	.L1780
	movslq	%r8d, %r8
	movzbl	(%rax,%r8), %r10d
	movb	%r10b, (%rdi,%r8)
	leal	2(%rdx), %r8d
	cmpl	%r8d, %r15d
	jle	.L1780
	movslq	%r8d, %r8
	movzbl	(%rax,%r8), %r10d
	movb	%r10b, (%rdi,%r8)
	leal	3(%rdx), %r8d
	cmpl	%r8d, %r15d
	jle	.L1780
	movslq	%r8d, %r8
	movzbl	(%rax,%r8), %r10d
	movb	%r10b, (%rdi,%r8)
	leal	4(%rdx), %r8d
	cmpl	%r8d, %r15d
	jle	.L1780
	movslq	%r8d, %r8
	movzbl	(%rax,%r8), %r10d
	movb	%r10b, (%rdi,%r8)
	leal	5(%rdx), %r8d
	cmpl	%r8d, %r15d
	jle	.L1780
	movslq	%r8d, %r8
	addl	$6, %edx
	movzbl	(%rax,%r8), %r10d
	movb	%r10b, (%rdi,%r8)
	cmpl	%edx, %r15d
	jle	.L1780
	movslq	%edx, %rdx
	movzbl	(%rax,%rdx), %r8d
	movb	%r8b, (%rdi,%rdx)
.L1780:
	movb	$-1, (%rdi,%r11)
	addq	%r11, %rax
	addq	%r13, %rdi
	decl	%r9d
	jne	.L1769
	movl	260(%rsp), %eax
	movq	(%rsp), %r14
	imulq	%r11, %rax
	addq	%rax, %r14
	jmp	.L1759
.L1766:
	movl	260(%rsp), %r8d
	testl	%r8d, %r8d
	je	.L1768
	movslq	256(%rsp), %rbx
	movl	%r15d, %eax
	movl	%r15d, %ebp
	movslq	%r15d, %r9
	shrl	$4, %eax
	leal	-1(%r15), %r10d
	andl	$-16, %ebp
	movq	%r14, 48(%rsp)
	leal	-1(%rax), %esi
	movq	%r14, %rax
	incq	%rsi
	movl	%ebx, %r11d
	movq	%rbx, %r12
	salq	$4, %rsi
	negl	%r11d
	movslq	%r11d, %r11
	movq	%r11, %rdx
	addq	%r11, %rdi
	notq	%rdx
	movq	%rdx, (%rsp)
	movl	%r15d, %edx
	andl	$15, %edx
